ARM GAS  C:\Users\gagan\AppData\Local\Temp\ccVfL2Av.s 			page 1


   1              		.cpu cortex-m0
   2              		.fpu softvfp
   3              		.eabi_attribute 20, 1
   4              		.eabi_attribute 21, 1
   5              		.eabi_attribute 23, 3
   6              		.eabi_attribute 24, 1
   7              		.eabi_attribute 25, 1
   8              		.eabi_attribute 26, 1
   9              		.eabi_attribute 30, 6
  10              		.eabi_attribute 18, 4
  11              		.code	16
  12              		.file	"PWM.c"
  19 0000 85030000 		.text
  19      02005C00 
  19      00000201 
  19      FB0E0D00 
  19      01010101 
  20              	.Ltext0:
  21              		.cfi_sections	.debug_frame
  22              		.global	PWM_initVar
  23              		.bss
  24              		.type	PWM_initVar, %object
  25              		.size	PWM_initVar, 1
  26              	PWM_initVar:
  27 0000 00       		.space	1
  28              		.section	.text.PWM_Init,"ax",%progbits
  29              		.align	2
  30              		.global	PWM_Init
  31              		.code	16
  32              		.thumb_func
  33              		.type	PWM_Init, %function
  34              	PWM_Init:
  35              	.LFB0:
  36              		.file 1 ".\\Generated_Source\\PSoC4\\PWM.c"
   1:.\Generated_Source\PSoC4/PWM.c **** /*******************************************************************************
   2:.\Generated_Source\PSoC4/PWM.c **** * File Name: PWM.c
   3:.\Generated_Source\PSoC4/PWM.c **** * Version 1.0
   4:.\Generated_Source\PSoC4/PWM.c **** *
   5:.\Generated_Source\PSoC4/PWM.c **** * Description:
   6:.\Generated_Source\PSoC4/PWM.c **** *  This file provides the source code to the API for the PWM
   7:.\Generated_Source\PSoC4/PWM.c **** *  component
   8:.\Generated_Source\PSoC4/PWM.c **** *
   9:.\Generated_Source\PSoC4/PWM.c **** * Note:
  10:.\Generated_Source\PSoC4/PWM.c **** *  None
  11:.\Generated_Source\PSoC4/PWM.c **** *
  12:.\Generated_Source\PSoC4/PWM.c **** ********************************************************************************
  13:.\Generated_Source\PSoC4/PWM.c **** * Copyright 2013, Cypress Semiconductor Corporation.  All rights reserved.
  14:.\Generated_Source\PSoC4/PWM.c **** * You may use this file only in accordance with the license, terms, conditions,
  15:.\Generated_Source\PSoC4/PWM.c **** * disclaimers, and limitations in the end user license agreement accompanying
  16:.\Generated_Source\PSoC4/PWM.c **** * the software package with which this file was provided.
  17:.\Generated_Source\PSoC4/PWM.c **** *******************************************************************************/
ARM GAS  C:\Users\gagan\AppData\Local\Temp\ccVfL2Av.s 			page 2


  18:.\Generated_Source\PSoC4/PWM.c **** 
  19:.\Generated_Source\PSoC4/PWM.c **** #include "PWM.h"
  20:.\Generated_Source\PSoC4/PWM.c **** #include "cyLib.h"
  21:.\Generated_Source\PSoC4/PWM.c **** 
  22:.\Generated_Source\PSoC4/PWM.c **** uint8 PWM_initVar = 0u;
  23:.\Generated_Source\PSoC4/PWM.c **** 
  24:.\Generated_Source\PSoC4/PWM.c **** 
  25:.\Generated_Source\PSoC4/PWM.c **** /*******************************************************************************
  26:.\Generated_Source\PSoC4/PWM.c **** * Function Name: PWM_Init
  27:.\Generated_Source\PSoC4/PWM.c **** ********************************************************************************
  28:.\Generated_Source\PSoC4/PWM.c **** *
  29:.\Generated_Source\PSoC4/PWM.c **** * Summary:
  30:.\Generated_Source\PSoC4/PWM.c **** *  Initialize/Restore default PWM configuration.
  31:.\Generated_Source\PSoC4/PWM.c **** *
  32:.\Generated_Source\PSoC4/PWM.c **** * Parameters:
  33:.\Generated_Source\PSoC4/PWM.c **** *  None
  34:.\Generated_Source\PSoC4/PWM.c **** *
  35:.\Generated_Source\PSoC4/PWM.c **** * Return:
  36:.\Generated_Source\PSoC4/PWM.c **** *  None
  37:.\Generated_Source\PSoC4/PWM.c **** *
  38:.\Generated_Source\PSoC4/PWM.c **** *******************************************************************************/
  39:.\Generated_Source\PSoC4/PWM.c **** void PWM_Init(void)
  40:.\Generated_Source\PSoC4/PWM.c **** {
  37              		.loc 1 40 0
  38              		.cfi_startproc
  39 0000 80B5     		push	{r7, lr}
  40              	.LCFI0:
  41              		.cfi_def_cfa_offset 8
  42              		.cfi_offset 7, -8
  43              		.cfi_offset 14, -4
  44 0002 00AF     		add	r7, sp, #0
  45              	.LCFI1:
  46              		.cfi_def_cfa_register 7
  41:.\Generated_Source\PSoC4/PWM.c **** 
  42:.\Generated_Source\PSoC4/PWM.c ****     /* Set values from customizer to CTRL */
  43:.\Generated_Source\PSoC4/PWM.c ****     #if (PWM__QUAD == PWM_CONFIG)
  44:.\Generated_Source\PSoC4/PWM.c ****         PWM_CONTROL_REG =
  45:.\Generated_Source\PSoC4/PWM.c ****         (((uint32)(PWM_QUAD_ENCODING_MODES     << PWM_QUAD_MODE_SHIFT))       |
  46:.\Generated_Source\PSoC4/PWM.c ****          ((uint32)(PWM_CONFIG                  << PWM_MODE_SHIFT)));
  47:.\Generated_Source\PSoC4/PWM.c ****     #endif  /* (PWM__QUAD == PWM_CONFIG) */
  48:.\Generated_Source\PSoC4/PWM.c **** 
  49:.\Generated_Source\PSoC4/PWM.c ****     #if (PWM__PWM_SEL == PWM_CONFIG)
  50:.\Generated_Source\PSoC4/PWM.c ****         PWM_CONTROL_REG =
  47              		.loc 1 50 0
  48 0004 0F4A     		ldr	r2, .L3
  49 0006 8423     		mov	r3, #132
  50 0008 DB04     		lsl	r3, r3, #19
  51 000a 1360     		str	r3, [r2]
  51:.\Generated_Source\PSoC4/PWM.c ****         (((uint32)(PWM_PWM_STOP_EVENT          << PWM_PWM_STOP_KILL_SHIFT))    |
  52:.\Generated_Source\PSoC4/PWM.c ****          ((uint32)(PWM_PWM_OUT_INVERT          << PWM_INV_OUT_SHIFT))         |
  53:.\Generated_Source\PSoC4/PWM.c ****          ((uint32)(PWM_PWM_OUT_N_INVERT        << PWM_INV_COMPL_OUT_SHIFT))     |
  54:.\Generated_Source\PSoC4/PWM.c ****          ((uint32)(PWM_PWM_MODE                << PWM_MODE_SHIFT)));
  55:.\Generated_Source\PSoC4/PWM.c **** 
  56:.\Generated_Source\PSoC4/PWM.c ****         #if (PWM__PWM_PR == PWM_PWM_MODE)
  57:.\Generated_Source\PSoC4/PWM.c ****             PWM_CONTROL_REG |=
  58:.\Generated_Source\PSoC4/PWM.c ****             ((uint32)(PWM_PWM_RUN_MODE         << PWM_ONESHOT_SHIFT));
  59:.\Generated_Source\PSoC4/PWM.c **** 
ARM GAS  C:\Users\gagan\AppData\Local\Temp\ccVfL2Av.s 			page 3


  60:.\Generated_Source\PSoC4/PWM.c ****             PWM_WriteCounter(PWM_PWM_PR_INIT_VALUE);
  61:.\Generated_Source\PSoC4/PWM.c ****         #else
  62:.\Generated_Source\PSoC4/PWM.c ****             PWM_CONTROL_REG |=
  52              		.loc 1 62 0
  53 000c 0D4B     		ldr	r3, .L3
  54 000e 0D4A     		ldr	r2, .L3
  55 0010 1268     		ldr	r2, [r2]
  56 0012 1A60     		str	r2, [r3]
  63:.\Generated_Source\PSoC4/PWM.c ****             (((uint32)(PWM_PWM_ALIGN           << PWM_UPDOWN_SHIFT))          |
  64:.\Generated_Source\PSoC4/PWM.c ****              ((uint32)(PWM_PWM_KILL_EVENT      << PWM_PWM_SYNC_KILL_SHIFT)));
  65:.\Generated_Source\PSoC4/PWM.c ****         #endif  /* (PWM__PWM_PR == PWM_PWM_MODE) */
  66:.\Generated_Source\PSoC4/PWM.c **** 
  67:.\Generated_Source\PSoC4/PWM.c ****         #if (PWM__PWM_DT == PWM_PWM_MODE)
  68:.\Generated_Source\PSoC4/PWM.c ****             PWM_CONTROL_REG |=
  69:.\Generated_Source\PSoC4/PWM.c ****             ((uint32)(PWM_PWM_DEAD_TIME_CYCLE  << PWM_PRESCALER_SHIFT));
  70:.\Generated_Source\PSoC4/PWM.c ****         #endif  /* (PWM__PWM_DT == PWM_PWM_MODE) */
  71:.\Generated_Source\PSoC4/PWM.c **** 
  72:.\Generated_Source\PSoC4/PWM.c ****         #if (PWM__PWM == PWM_PWM_MODE)
  73:.\Generated_Source\PSoC4/PWM.c ****             PWM_CONTROL_REG |=
  57              		.loc 1 73 0
  58 0014 0B4B     		ldr	r3, .L3
  59 0016 0B4A     		ldr	r2, .L3
  60 0018 1268     		ldr	r2, [r2]
  61 001a 1A60     		str	r2, [r3]
  74:.\Generated_Source\PSoC4/PWM.c ****             ((uint32)PWM_PWM_PRESCALER         << PWM_PRESCALER_SHIFT);
  75:.\Generated_Source\PSoC4/PWM.c ****         #endif  /* (PWM__PWM == PWM_PWM_MODE) */
  76:.\Generated_Source\PSoC4/PWM.c ****     #endif  /* (PWM__PWM_SEL == PWM_CONFIG) */
  77:.\Generated_Source\PSoC4/PWM.c **** 
  78:.\Generated_Source\PSoC4/PWM.c ****     #if (PWM__TIMER == PWM_CONFIG)
  79:.\Generated_Source\PSoC4/PWM.c ****         PWM_CONTROL_REG =
  80:.\Generated_Source\PSoC4/PWM.c ****         (((uint32)(PWM_TC_PRESCALER            << PWM_PRESCALER_SHIFT))   |
  81:.\Generated_Source\PSoC4/PWM.c ****          ((uint32)(PWM_TC_COUNTER_MODE         << PWM_UPDOWN_SHIFT))      |
  82:.\Generated_Source\PSoC4/PWM.c ****          ((uint32)(PWM_TC_RUN_MODE             << PWM_ONESHOT_SHIFT))     |
  83:.\Generated_Source\PSoC4/PWM.c ****          ((uint32)(PWM_TC_COMP_CAP_MODE        << PWM_MODE_SHIFT)));
  84:.\Generated_Source\PSoC4/PWM.c ****     #endif  /* (PWM__TIMER == PWM_CONFIG) */
  85:.\Generated_Source\PSoC4/PWM.c **** 
  86:.\Generated_Source\PSoC4/PWM.c ****     /* Set values from customizer to CTRL1 */
  87:.\Generated_Source\PSoC4/PWM.c ****     #if (PWM__QUAD == PWM_CONFIG)
  88:.\Generated_Source\PSoC4/PWM.c ****         PWM_TRIG_CONTROL1_REG  =
  89:.\Generated_Source\PSoC4/PWM.c ****         (((uint32)(PWM_QUAD_PHIA_SIGNAL_MODE   << PWM_COUNT_SHIFT))       |
  90:.\Generated_Source\PSoC4/PWM.c ****          ((uint32)(PWM_QUAD_INDEX_SIGNAL_MODE  << PWM_RELOAD_SHIFT))      |
  91:.\Generated_Source\PSoC4/PWM.c ****          ((uint32)(PWM_QUAD_STOP_SIGNAL_MODE   << PWM_STOP_SHIFT))        |
  92:.\Generated_Source\PSoC4/PWM.c ****          ((uint32)(PWM_QUAD_PHIB_SIGNAL_MODE   << PWM_START_SHIFT)));
  93:.\Generated_Source\PSoC4/PWM.c ****     #endif  /* (PWM__QUAD == PWM_CONFIG) */
  94:.\Generated_Source\PSoC4/PWM.c **** 
  95:.\Generated_Source\PSoC4/PWM.c ****     #if (PWM__PWM_SEL == PWM_CONFIG)
  96:.\Generated_Source\PSoC4/PWM.c ****         PWM_TRIG_CONTROL1_REG  =
  62              		.loc 1 96 0
  63 001c 0A4A     		ldr	r2, .L3+4
  64 001e C323     		mov	r3, #195
  65 0020 9B00     		lsl	r3, r3, #2
  66 0022 1360     		str	r3, [r2]
  97:.\Generated_Source\PSoC4/PWM.c ****         (((uint32)(PWM_PWM_SWITCH_SIGNAL_MODE  << PWM_CAPTURE_SHIFT))     |
  98:.\Generated_Source\PSoC4/PWM.c ****          ((uint32)(PWM_PWM_COUNT_SIGNAL_MODE   << PWM_COUNT_SHIFT))       |
  99:.\Generated_Source\PSoC4/PWM.c ****          ((uint32)(PWM_PWM_RELOAD_SIGNAL_MODE  << PWM_RELOAD_SHIFT))      |
 100:.\Generated_Source\PSoC4/PWM.c ****          ((uint32)(PWM_PWM_STOP_SIGNAL_MODE    << PWM_STOP_SHIFT))        |
 101:.\Generated_Source\PSoC4/PWM.c ****          ((uint32)(PWM_PWM_START_SIGNAL_MODE   << PWM_START_SHIFT)));
ARM GAS  C:\Users\gagan\AppData\Local\Temp\ccVfL2Av.s 			page 4


 102:.\Generated_Source\PSoC4/PWM.c ****     #endif  /* (PWM__PWM_SEL == PWM_CONFIG) */
 103:.\Generated_Source\PSoC4/PWM.c **** 
 104:.\Generated_Source\PSoC4/PWM.c ****     #if (PWM__TIMER == PWM_CONFIG)
 105:.\Generated_Source\PSoC4/PWM.c ****         PWM_TRIG_CONTROL1_REG  =
 106:.\Generated_Source\PSoC4/PWM.c ****         (((uint32)(PWM_TC_CAPTURE_SIGNAL_MODE  << PWM_CAPTURE_SHIFT))     |
 107:.\Generated_Source\PSoC4/PWM.c ****          ((uint32)(PWM_TC_COUNT_SIGNAL_MODE    << PWM_COUNT_SHIFT))       |
 108:.\Generated_Source\PSoC4/PWM.c ****          ((uint32)(PWM_TC_RELOAD_SIGNAL_MODE   << PWM_RELOAD_SHIFT))      |
 109:.\Generated_Source\PSoC4/PWM.c ****          ((uint32)(PWM_TC_STOP_SIGNAL_MODE     << PWM_STOP_SHIFT))        |
 110:.\Generated_Source\PSoC4/PWM.c ****          ((uint32)(PWM_TC_START_SIGNAL_MODE    << PWM_START_SHIFT)));
 111:.\Generated_Source\PSoC4/PWM.c ****     #endif  /* (PWM__TIMER == PWM_CONFIG) */
 112:.\Generated_Source\PSoC4/PWM.c **** 
 113:.\Generated_Source\PSoC4/PWM.c ****     /* Set values from customizer to INTR */
 114:.\Generated_Source\PSoC4/PWM.c ****     #if (PWM__QUAD == PWM_CONFIG)
 115:.\Generated_Source\PSoC4/PWM.c ****         PWM_SetInterruptMode(PWM_QUAD_INTERRUPT_MASK);
 116:.\Generated_Source\PSoC4/PWM.c ****     #endif  /* (PWM__QUAD == PWM_CONFIG) */
 117:.\Generated_Source\PSoC4/PWM.c **** 
 118:.\Generated_Source\PSoC4/PWM.c ****     #if (PWM__PWM_SEL == PWM_CONFIG)
 119:.\Generated_Source\PSoC4/PWM.c ****         PWM_SetInterruptMode(PWM_PWM_INTERRUPT_MASK);
  67              		.loc 1 119 0
  68 0024 0020     		mov	r0, #0
  69 0026 FFF7FEFF 		bl	PWM_SetInterruptMode
 120:.\Generated_Source\PSoC4/PWM.c ****     #endif  /* (PWM__PWM_SEL == PWM_CONFIG) */
 121:.\Generated_Source\PSoC4/PWM.c **** 
 122:.\Generated_Source\PSoC4/PWM.c ****     #if (PWM__TIMER == PWM_CONFIG)
 123:.\Generated_Source\PSoC4/PWM.c ****         PWM_SetInterruptMode(PWM_TC_INTERRUPT_MASK);
 124:.\Generated_Source\PSoC4/PWM.c ****     #endif  /* (PWM__TIMER == PWM_CONFIG) */
 125:.\Generated_Source\PSoC4/PWM.c **** 
 126:.\Generated_Source\PSoC4/PWM.c ****     /* Set other values from customizer */
 127:.\Generated_Source\PSoC4/PWM.c ****     #if (PWM__TIMER == PWM_CONFIG)
 128:.\Generated_Source\PSoC4/PWM.c ****         PWM_WritePeriod(PWM_TC_PERIOD_VALUE );
 129:.\Generated_Source\PSoC4/PWM.c ****         #if (PWM__COMPARE == PWM_TC_COMP_CAP_MODE)
 130:.\Generated_Source\PSoC4/PWM.c ****             PWM_WriteCompare(PWM_TC_COMPARE_VALUE);
 131:.\Generated_Source\PSoC4/PWM.c **** 
 132:.\Generated_Source\PSoC4/PWM.c ****             #if (1u == PWM_TC_COMPARE_SWAP)
 133:.\Generated_Source\PSoC4/PWM.c ****                 PWM_SetCompareSwap(1u);
 134:.\Generated_Source\PSoC4/PWM.c ****                 PWM_WriteCompareBuf(PWM_TC_COMPARE_BUF_VALUE);
 135:.\Generated_Source\PSoC4/PWM.c ****             #endif  /* (1u == PWM_TC_COMPARE_SWAP) */
 136:.\Generated_Source\PSoC4/PWM.c ****         #endif  /* (PWM__COMPARE == PWM_TC_COMP_CAP_MODE) */
 137:.\Generated_Source\PSoC4/PWM.c ****     #endif  /* (PWM__TIMER == PWM_CONFIG) */
 138:.\Generated_Source\PSoC4/PWM.c **** 
 139:.\Generated_Source\PSoC4/PWM.c ****     #if (PWM__PWM_SEL == PWM_CONFIG)
 140:.\Generated_Source\PSoC4/PWM.c ****         PWM_WritePeriod(PWM_PWM_PERIOD_VALUE );
  70              		.loc 1 140 0
  71 002a 084B     		ldr	r3, .L3+8
  72 002c 181C     		mov	r0, r3
  73 002e FFF7FEFF 		bl	PWM_WritePeriod
 141:.\Generated_Source\PSoC4/PWM.c ****         PWM_WriteCompare(PWM_PWM_COMPARE_VALUE);
  74              		.loc 1 141 0
  75 0032 074B     		ldr	r3, .L3+12
  76 0034 181C     		mov	r0, r3
  77 0036 FFF7FEFF 		bl	PWM_WriteCompare
 142:.\Generated_Source\PSoC4/PWM.c **** 
 143:.\Generated_Source\PSoC4/PWM.c ****         #if (1u == PWM_PWM_COMPARE_SWAP)
 144:.\Generated_Source\PSoC4/PWM.c ****             PWM_SetCompareSwap(1u);
 145:.\Generated_Source\PSoC4/PWM.c ****             PWM_WriteCompareBuf(PWM_PWM_COMPARE_BUF_VALUE);
 146:.\Generated_Source\PSoC4/PWM.c ****         #endif  /* (1u == PWM_PWM_COMPARE_SWAP) */
 147:.\Generated_Source\PSoC4/PWM.c **** 
ARM GAS  C:\Users\gagan\AppData\Local\Temp\ccVfL2Av.s 			page 5


 148:.\Generated_Source\PSoC4/PWM.c ****         #if (1u == PWM_PWM_PERIOD_SWAP)
 149:.\Generated_Source\PSoC4/PWM.c ****             PWM_SetPeriodSwap(1u);
 150:.\Generated_Source\PSoC4/PWM.c ****             PWM_WritePeriodBuf(PWM_PWM_PERIOD_BUF_VALUE);
 151:.\Generated_Source\PSoC4/PWM.c ****         #endif  /* (1u == PWM_PWM_PERIOD_SWAP) */
 152:.\Generated_Source\PSoC4/PWM.c **** 
 153:.\Generated_Source\PSoC4/PWM.c ****         /* Set values from customizer to CTRL2 */
 154:.\Generated_Source\PSoC4/PWM.c ****         #if (PWM__PWM_PR == PWM_PWM_MODE)
 155:.\Generated_Source\PSoC4/PWM.c ****             PWM_TRIG_CONTROL2_REG =
 156:.\Generated_Source\PSoC4/PWM.c ****                     (PWM_CC_MATCH_NO_CHANGE    |
 157:.\Generated_Source\PSoC4/PWM.c ****                     PWM_OVERLOW_NO_CHANGE      |
 158:.\Generated_Source\PSoC4/PWM.c ****                     PWM_UNDERFLOW_NO_CHANGE);
 159:.\Generated_Source\PSoC4/PWM.c ****         #else
 160:.\Generated_Source\PSoC4/PWM.c ****             #if (PWM__LEFT == PWM_PWM_ALIGN)
 161:.\Generated_Source\PSoC4/PWM.c ****                 PWM_TRIG_CONTROL2_REG = PWM_PWM_MODE_LEFT;
  78              		.loc 1 161 0
  79 003a 064B     		ldr	r3, .L3+16
  80 003c 3122     		mov	r2, #49
  81 003e 1A60     		str	r2, [r3]
 162:.\Generated_Source\PSoC4/PWM.c ****             #endif  /* ( PWM_PWM_LEFT == PWM_PWM_ALIGN) */
 163:.\Generated_Source\PSoC4/PWM.c **** 
 164:.\Generated_Source\PSoC4/PWM.c ****             #if (PWM__RIGHT == PWM_PWM_ALIGN)
 165:.\Generated_Source\PSoC4/PWM.c ****                 PWM_TRIG_CONTROL2_REG = PWM_PWM_MODE_RIGHT;
 166:.\Generated_Source\PSoC4/PWM.c ****             #endif  /* ( PWM_PWM_RIGHT == PWM_PWM_ALIGN) */
 167:.\Generated_Source\PSoC4/PWM.c **** 
 168:.\Generated_Source\PSoC4/PWM.c ****             #if (PWM__CENTER == PWM_PWM_ALIGN)
 169:.\Generated_Source\PSoC4/PWM.c ****                 PWM_TRIG_CONTROL2_REG = PWM_PWM_MODE_CENTER;
 170:.\Generated_Source\PSoC4/PWM.c ****             #endif  /* ( PWM_PWM_CENTER == PWM_PWM_ALIGN) */
 171:.\Generated_Source\PSoC4/PWM.c **** 
 172:.\Generated_Source\PSoC4/PWM.c ****             #if (PWM__ASYMMETRIC == PWM_PWM_ALIGN)
 173:.\Generated_Source\PSoC4/PWM.c ****                 PWM_TRIG_CONTROL2_REG = PWM_PWM_MODE_ASYM;
 174:.\Generated_Source\PSoC4/PWM.c ****             #endif  /* (PWM__ASYMMETRIC == PWM_PWM_ALIGN) */
 175:.\Generated_Source\PSoC4/PWM.c ****         #endif  /* (PWM__PWM_PR == PWM_PWM_MODE) */
 176:.\Generated_Source\PSoC4/PWM.c ****     #endif  /* (PWM__PWM_SEL == PWM_CONFIG) */
 177:.\Generated_Source\PSoC4/PWM.c **** }
  82              		.loc 1 177 0
  83 0040 BD46     		mov	sp, r7
  84              		@ sp needed for prologue
  85 0042 80BD     		pop	{r7, pc}
  86              	.L4:
  87              		.align	2
  88              	.L3:
  89 0044 00010540 		.word	1074069760
  90 0048 24010540 		.word	1074069796
  91 004c 10270000 		.word	10000
  92 0050 88130000 		.word	5000
  93 0054 28010540 		.word	1074069800
  94              		.cfi_endproc
  95              	.LFE0:
  96              		.size	PWM_Init, .-PWM_Init
  97              		.section	.text.PWM_Enable,"ax",%progbits
  98              		.align	2
  99              		.global	PWM_Enable
 100              		.code	16
 101              		.thumb_func
 102              		.type	PWM_Enable, %function
 103              	PWM_Enable:
 104              	.LFB1:
ARM GAS  C:\Users\gagan\AppData\Local\Temp\ccVfL2Av.s 			page 6


 178:.\Generated_Source\PSoC4/PWM.c **** 
 179:.\Generated_Source\PSoC4/PWM.c **** 
 180:.\Generated_Source\PSoC4/PWM.c **** /*******************************************************************************
 181:.\Generated_Source\PSoC4/PWM.c **** * Function Name: PWM_Enable
 182:.\Generated_Source\PSoC4/PWM.c **** ********************************************************************************
 183:.\Generated_Source\PSoC4/PWM.c **** *
 184:.\Generated_Source\PSoC4/PWM.c **** * Summary:
 185:.\Generated_Source\PSoC4/PWM.c **** *  Enables the PWM.
 186:.\Generated_Source\PSoC4/PWM.c **** *
 187:.\Generated_Source\PSoC4/PWM.c **** * Parameters:
 188:.\Generated_Source\PSoC4/PWM.c **** *  None
 189:.\Generated_Source\PSoC4/PWM.c **** *
 190:.\Generated_Source\PSoC4/PWM.c **** * Return:
 191:.\Generated_Source\PSoC4/PWM.c **** *  None
 192:.\Generated_Source\PSoC4/PWM.c **** *
 193:.\Generated_Source\PSoC4/PWM.c **** *******************************************************************************/
 194:.\Generated_Source\PSoC4/PWM.c **** void PWM_Enable(void)
 195:.\Generated_Source\PSoC4/PWM.c **** {
 105              		.loc 1 195 0
 106              		.cfi_startproc
 107 0000 80B5     		push	{r7, lr}
 108              	.LCFI2:
 109              		.cfi_def_cfa_offset 8
 110              		.cfi_offset 7, -8
 111              		.cfi_offset 14, -4
 112 0002 82B0     		sub	sp, sp, #8
 113              	.LCFI3:
 114              		.cfi_def_cfa_offset 16
 115 0004 00AF     		add	r7, sp, #0
 116              	.LCFI4:
 117              		.cfi_def_cfa_register 7
 196:.\Generated_Source\PSoC4/PWM.c ****     uint8 enableInterrupts;
 197:.\Generated_Source\PSoC4/PWM.c **** 
 198:.\Generated_Source\PSoC4/PWM.c ****     enableInterrupts = CyEnterCriticalSection();
 118              		.loc 1 198 0
 119 0006 FFF7FEFF 		bl	CyEnterCriticalSection
 120 000a 031C     		mov	r3, r0
 121 000c 1A1C     		mov	r2, r3
 122 000e FB1D     		add	r3, r7, #7
 123 0010 1A70     		strb	r2, [r3]
 199:.\Generated_Source\PSoC4/PWM.c ****     PWM_BLOCK_CONTROL_REG |= PWM_MASK;
 124              		.loc 1 199 0
 125 0012 074B     		ldr	r3, .L7
 126 0014 064A     		ldr	r2, .L7
 127 0016 1168     		ldr	r1, [r2]
 128 0018 0122     		mov	r2, #1
 129 001a 0A43     		orr	r2, r2, r1
 130 001c 1A60     		str	r2, [r3]
 200:.\Generated_Source\PSoC4/PWM.c ****     CyExitCriticalSection(enableInterrupts);
 131              		.loc 1 200 0
 132 001e FB1D     		add	r3, r7, #7
 133 0020 1B78     		ldrb	r3, [r3]
 134 0022 181C     		mov	r0, r3
 135 0024 FFF7FEFF 		bl	CyExitCriticalSection
 201:.\Generated_Source\PSoC4/PWM.c **** 
 202:.\Generated_Source\PSoC4/PWM.c ****     /* Statr Timer or PWM if start input is absent */
 203:.\Generated_Source\PSoC4/PWM.c ****     #if (PWM__PWM_SEL == PWM_CONFIG)
ARM GAS  C:\Users\gagan\AppData\Local\Temp\ccVfL2Av.s 			page 7


 204:.\Generated_Source\PSoC4/PWM.c ****         #if (0u == PWM_PWM_START_SIGNAL_PRESENT)
 205:.\Generated_Source\PSoC4/PWM.c ****             PWM_TriggerCommand(PWM_MASK, PWM_CMD_START);
 206:.\Generated_Source\PSoC4/PWM.c ****         #endif /* (0u == PWM_PWM_START_SIGNAL_PRESENT) */
 207:.\Generated_Source\PSoC4/PWM.c ****     #endif /* (PWM__PWM_SEL == PWM_CONFIG) */
 208:.\Generated_Source\PSoC4/PWM.c **** 
 209:.\Generated_Source\PSoC4/PWM.c ****     #if (PWM__TIMER == PWM_CONFIG)
 210:.\Generated_Source\PSoC4/PWM.c ****         #if (0u == PWM_TC_START_SIGNAL_PRESENT)
 211:.\Generated_Source\PSoC4/PWM.c ****             PWM_TriggerCommand(PWM_MASK, PWM_CMD_START);
 212:.\Generated_Source\PSoC4/PWM.c ****         #endif /* (0u == PWM_TC_START_SIGNAL_PRESENT) */
 213:.\Generated_Source\PSoC4/PWM.c ****     #endif /* (PWM__TIMER == PWM_CONFIG) */
 214:.\Generated_Source\PSoC4/PWM.c **** }
 136              		.loc 1 214 0
 137 0028 BD46     		mov	sp, r7
 138 002a 02B0     		add	sp, sp, #8
 139              		@ sp needed for prologue
 140 002c 80BD     		pop	{r7, pc}
 141              	.L8:
 142 002e C046     		.align	2
 143              	.L7:
 144 0030 00000540 		.word	1074069504
 145              		.cfi_endproc
 146              	.LFE1:
 147              		.size	PWM_Enable, .-PWM_Enable
 148              		.section	.text.PWM_Start,"ax",%progbits
 149              		.align	2
 150              		.global	PWM_Start
 151              		.code	16
 152              		.thumb_func
 153              		.type	PWM_Start, %function
 154              	PWM_Start:
 155              	.LFB2:
 215:.\Generated_Source\PSoC4/PWM.c **** 
 216:.\Generated_Source\PSoC4/PWM.c **** 
 217:.\Generated_Source\PSoC4/PWM.c **** /*******************************************************************************
 218:.\Generated_Source\PSoC4/PWM.c **** * Function Name: PWM_Start
 219:.\Generated_Source\PSoC4/PWM.c **** ********************************************************************************
 220:.\Generated_Source\PSoC4/PWM.c **** *
 221:.\Generated_Source\PSoC4/PWM.c **** * Summary:
 222:.\Generated_Source\PSoC4/PWM.c **** *  Initialize the PWM with default customizer
 223:.\Generated_Source\PSoC4/PWM.c **** *  values when called the first time and enables the PWM.
 224:.\Generated_Source\PSoC4/PWM.c **** *  For subsequent calls the configuration is left unchanged and the component is
 225:.\Generated_Source\PSoC4/PWM.c **** *  just enabled.
 226:.\Generated_Source\PSoC4/PWM.c **** *
 227:.\Generated_Source\PSoC4/PWM.c **** * Parameters:
 228:.\Generated_Source\PSoC4/PWM.c **** *  None
 229:.\Generated_Source\PSoC4/PWM.c **** *
 230:.\Generated_Source\PSoC4/PWM.c **** * Return:
 231:.\Generated_Source\PSoC4/PWM.c **** *  None
 232:.\Generated_Source\PSoC4/PWM.c **** *
 233:.\Generated_Source\PSoC4/PWM.c **** * Global variables:
 234:.\Generated_Source\PSoC4/PWM.c **** *  PWM_initVar: global variable is used to indicate initial
 235:.\Generated_Source\PSoC4/PWM.c **** *  configuration of this component.  The variable is initialized to zero and set
 236:.\Generated_Source\PSoC4/PWM.c **** *  to 1 the first time PWM_Start() is called. This allows
 237:.\Generated_Source\PSoC4/PWM.c **** *  enable/disable component without re-initialization in all subsequent calls
 238:.\Generated_Source\PSoC4/PWM.c **** *  to the PWM_Start() routine.
 239:.\Generated_Source\PSoC4/PWM.c **** *
 240:.\Generated_Source\PSoC4/PWM.c **** *******************************************************************************/
ARM GAS  C:\Users\gagan\AppData\Local\Temp\ccVfL2Av.s 			page 8


 241:.\Generated_Source\PSoC4/PWM.c **** void PWM_Start(void)
 242:.\Generated_Source\PSoC4/PWM.c **** {
 156              		.loc 1 242 0
 157              		.cfi_startproc
 158 0000 80B5     		push	{r7, lr}
 159              	.LCFI5:
 160              		.cfi_def_cfa_offset 8
 161              		.cfi_offset 7, -8
 162              		.cfi_offset 14, -4
 163 0002 00AF     		add	r7, sp, #0
 164              	.LCFI6:
 165              		.cfi_def_cfa_register 7
 243:.\Generated_Source\PSoC4/PWM.c ****     if (0u == PWM_initVar)
 166              		.loc 1 243 0
 167 0004 064B     		ldr	r3, .L12
 168 0006 1B78     		ldrb	r3, [r3]
 169 0008 002B     		cmp	r3, #0
 170 000a 04D1     		bne	.L10
 244:.\Generated_Source\PSoC4/PWM.c ****     {
 245:.\Generated_Source\PSoC4/PWM.c ****         PWM_Init();
 171              		.loc 1 245 0
 172 000c FFF7FEFF 		bl	PWM_Init
 246:.\Generated_Source\PSoC4/PWM.c ****         PWM_initVar = 1u;
 173              		.loc 1 246 0
 174 0010 034B     		ldr	r3, .L12
 175 0012 0122     		mov	r2, #1
 176 0014 1A70     		strb	r2, [r3]
 177              	.L10:
 247:.\Generated_Source\PSoC4/PWM.c ****     }
 248:.\Generated_Source\PSoC4/PWM.c **** 
 249:.\Generated_Source\PSoC4/PWM.c ****     PWM_Enable();
 178              		.loc 1 249 0
 179 0016 FFF7FEFF 		bl	PWM_Enable
 250:.\Generated_Source\PSoC4/PWM.c **** }
 180              		.loc 1 250 0
 181 001a BD46     		mov	sp, r7
 182              		@ sp needed for prologue
 183 001c 80BD     		pop	{r7, pc}
 184              	.L13:
 185 001e C046     		.align	2
 186              	.L12:
 187 0020 00000000 		.word	PWM_initVar
 188              		.cfi_endproc
 189              	.LFE2:
 190              		.size	PWM_Start, .-PWM_Start
 191              		.section	.text.PWM_Stop,"ax",%progbits
 192              		.align	2
 193              		.global	PWM_Stop
 194              		.code	16
 195              		.thumb_func
 196              		.type	PWM_Stop, %function
 197              	PWM_Stop:
 198              	.LFB3:
 251:.\Generated_Source\PSoC4/PWM.c **** 
 252:.\Generated_Source\PSoC4/PWM.c **** 
 253:.\Generated_Source\PSoC4/PWM.c **** /*******************************************************************************
 254:.\Generated_Source\PSoC4/PWM.c **** * Function Name: PWM_Stop
ARM GAS  C:\Users\gagan\AppData\Local\Temp\ccVfL2Av.s 			page 9


 255:.\Generated_Source\PSoC4/PWM.c **** ********************************************************************************
 256:.\Generated_Source\PSoC4/PWM.c **** *
 257:.\Generated_Source\PSoC4/PWM.c **** * Summary:
 258:.\Generated_Source\PSoC4/PWM.c **** *  Disables the PWM.
 259:.\Generated_Source\PSoC4/PWM.c **** *
 260:.\Generated_Source\PSoC4/PWM.c **** * Parameters:
 261:.\Generated_Source\PSoC4/PWM.c **** *  None
 262:.\Generated_Source\PSoC4/PWM.c **** *
 263:.\Generated_Source\PSoC4/PWM.c **** * Return:
 264:.\Generated_Source\PSoC4/PWM.c **** *  None
 265:.\Generated_Source\PSoC4/PWM.c **** *
 266:.\Generated_Source\PSoC4/PWM.c **** *******************************************************************************/
 267:.\Generated_Source\PSoC4/PWM.c **** void PWM_Stop(void)
 268:.\Generated_Source\PSoC4/PWM.c **** {
 199              		.loc 1 268 0
 200              		.cfi_startproc
 201 0000 80B5     		push	{r7, lr}
 202              	.LCFI7:
 203              		.cfi_def_cfa_offset 8
 204              		.cfi_offset 7, -8
 205              		.cfi_offset 14, -4
 206 0002 82B0     		sub	sp, sp, #8
 207              	.LCFI8:
 208              		.cfi_def_cfa_offset 16
 209 0004 00AF     		add	r7, sp, #0
 210              	.LCFI9:
 211              		.cfi_def_cfa_register 7
 269:.\Generated_Source\PSoC4/PWM.c ****     uint8 enableInterrupts;
 270:.\Generated_Source\PSoC4/PWM.c **** 
 271:.\Generated_Source\PSoC4/PWM.c ****     enableInterrupts = CyEnterCriticalSection();
 212              		.loc 1 271 0
 213 0006 FFF7FEFF 		bl	CyEnterCriticalSection
 214 000a 031C     		mov	r3, r0
 215 000c 1A1C     		mov	r2, r3
 216 000e FB1D     		add	r3, r7, #7
 217 0010 1A70     		strb	r2, [r3]
 272:.\Generated_Source\PSoC4/PWM.c **** 
 273:.\Generated_Source\PSoC4/PWM.c ****     PWM_BLOCK_CONTROL_REG &= (uint32)~PWM_MASK;
 218              		.loc 1 273 0
 219 0012 074B     		ldr	r3, .L16
 220 0014 064A     		ldr	r2, .L16
 221 0016 1268     		ldr	r2, [r2]
 222 0018 0121     		mov	r1, #1
 223 001a 8A43     		bic	r2, r2, r1
 224 001c 1A60     		str	r2, [r3]
 274:.\Generated_Source\PSoC4/PWM.c **** 
 275:.\Generated_Source\PSoC4/PWM.c ****     CyExitCriticalSection(enableInterrupts);
 225              		.loc 1 275 0
 226 001e FB1D     		add	r3, r7, #7
 227 0020 1B78     		ldrb	r3, [r3]
 228 0022 181C     		mov	r0, r3
 229 0024 FFF7FEFF 		bl	CyExitCriticalSection
 276:.\Generated_Source\PSoC4/PWM.c **** }
 230              		.loc 1 276 0
 231 0028 BD46     		mov	sp, r7
 232 002a 02B0     		add	sp, sp, #8
 233              		@ sp needed for prologue
ARM GAS  C:\Users\gagan\AppData\Local\Temp\ccVfL2Av.s 			page 10


 234 002c 80BD     		pop	{r7, pc}
 235              	.L17:
 236 002e C046     		.align	2
 237              	.L16:
 238 0030 00000540 		.word	1074069504
 239              		.cfi_endproc
 240              	.LFE3:
 241              		.size	PWM_Stop, .-PWM_Stop
 242              		.section	.text.PWM_SetMode,"ax",%progbits
 243              		.align	2
 244              		.global	PWM_SetMode
 245              		.code	16
 246              		.thumb_func
 247              		.type	PWM_SetMode, %function
 248              	PWM_SetMode:
 249              	.LFB4:
 277:.\Generated_Source\PSoC4/PWM.c **** 
 278:.\Generated_Source\PSoC4/PWM.c **** 
 279:.\Generated_Source\PSoC4/PWM.c **** /*******************************************************************************
 280:.\Generated_Source\PSoC4/PWM.c **** * Function Name: PWM_SetMode
 281:.\Generated_Source\PSoC4/PWM.c **** ********************************************************************************
 282:.\Generated_Source\PSoC4/PWM.c **** *
 283:.\Generated_Source\PSoC4/PWM.c **** * Summary:
 284:.\Generated_Source\PSoC4/PWM.c **** *  Sets the operation mode of the PWM. This function is used when
 285:.\Generated_Source\PSoC4/PWM.c **** *  configured as a generic PWM and the actual mode of operation is
 286:.\Generated_Source\PSoC4/PWM.c **** *  set at runtime. The mode must be set while the component is disabled.
 287:.\Generated_Source\PSoC4/PWM.c **** *
 288:.\Generated_Source\PSoC4/PWM.c **** * Parameters:
 289:.\Generated_Source\PSoC4/PWM.c **** *  mode: Mode for the PWM to operate in
 290:.\Generated_Source\PSoC4/PWM.c **** *   Values:
 291:.\Generated_Source\PSoC4/PWM.c **** *   - PWM_MODE_TIMER_COMPARE - Timer / Counter with
 292:.\Generated_Source\PSoC4/PWM.c **** *                                                 compare capability
 293:.\Generated_Source\PSoC4/PWM.c **** *         - PWM_MODE_TIMER_CAPTURE - Timer / Counter with
 294:.\Generated_Source\PSoC4/PWM.c **** *                                                 capture capability
 295:.\Generated_Source\PSoC4/PWM.c **** *         - PWM_MODE_QUAD - Quadrature decoder
 296:.\Generated_Source\PSoC4/PWM.c **** *         - PWM_MODE_PWM - PWM
 297:.\Generated_Source\PSoC4/PWM.c **** *         - PWM_MODE_PWM_DT - PWM with dead time
 298:.\Generated_Source\PSoC4/PWM.c **** *         - PWM_MODE_PWM_PR - PWM with pseudo random capability
 299:.\Generated_Source\PSoC4/PWM.c **** *
 300:.\Generated_Source\PSoC4/PWM.c **** * Return:
 301:.\Generated_Source\PSoC4/PWM.c **** *  None
 302:.\Generated_Source\PSoC4/PWM.c **** *
 303:.\Generated_Source\PSoC4/PWM.c **** *******************************************************************************/
 304:.\Generated_Source\PSoC4/PWM.c **** void PWM_SetMode(uint32 mode)
 305:.\Generated_Source\PSoC4/PWM.c **** {
 250              		.loc 1 305 0
 251              		.cfi_startproc
 252 0000 80B5     		push	{r7, lr}
 253              	.LCFI10:
 254              		.cfi_def_cfa_offset 8
 255              		.cfi_offset 7, -8
 256              		.cfi_offset 14, -4
 257 0002 84B0     		sub	sp, sp, #16
 258              	.LCFI11:
 259              		.cfi_def_cfa_offset 24
 260 0004 00AF     		add	r7, sp, #0
 261              	.LCFI12:
ARM GAS  C:\Users\gagan\AppData\Local\Temp\ccVfL2Av.s 			page 11


 262              		.cfi_def_cfa_register 7
 263 0006 7860     		str	r0, [r7, #4]
 306:.\Generated_Source\PSoC4/PWM.c ****     uint8 enableInterrupts;
 307:.\Generated_Source\PSoC4/PWM.c **** 
 308:.\Generated_Source\PSoC4/PWM.c ****     enableInterrupts = CyEnterCriticalSection();
 264              		.loc 1 308 0
 265 0008 FFF7FEFF 		bl	CyEnterCriticalSection
 266 000c 031C     		mov	r3, r0
 267 000e 1A1C     		mov	r2, r3
 268 0010 3B1C     		mov	r3, r7
 269 0012 0F33     		add	r3, r3, #15
 270 0014 1A70     		strb	r2, [r3]
 309:.\Generated_Source\PSoC4/PWM.c **** 
 310:.\Generated_Source\PSoC4/PWM.c ****     PWM_CONTROL_REG &= (uint32)~PWM_MODE_MASK;
 271              		.loc 1 310 0
 272 0016 0A4B     		ldr	r3, .L20
 273 0018 094A     		ldr	r2, .L20
 274 001a 1168     		ldr	r1, [r2]
 275 001c 094A     		ldr	r2, .L20+4
 276 001e 0A40     		and	r2, r2, r1
 277 0020 1A60     		str	r2, [r3]
 311:.\Generated_Source\PSoC4/PWM.c ****     PWM_CONTROL_REG |= mode;
 278              		.loc 1 311 0
 279 0022 074B     		ldr	r3, .L20
 280 0024 064A     		ldr	r2, .L20
 281 0026 1168     		ldr	r1, [r2]
 282 0028 7A68     		ldr	r2, [r7, #4]
 283 002a 0A43     		orr	r2, r2, r1
 284 002c 1A60     		str	r2, [r3]
 312:.\Generated_Source\PSoC4/PWM.c **** 
 313:.\Generated_Source\PSoC4/PWM.c ****     CyExitCriticalSection(enableInterrupts);
 285              		.loc 1 313 0
 286 002e 3B1C     		mov	r3, r7
 287 0030 0F33     		add	r3, r3, #15
 288 0032 1B78     		ldrb	r3, [r3]
 289 0034 181C     		mov	r0, r3
 290 0036 FFF7FEFF 		bl	CyExitCriticalSection
 314:.\Generated_Source\PSoC4/PWM.c **** }
 291              		.loc 1 314 0
 292 003a BD46     		mov	sp, r7
 293 003c 04B0     		add	sp, sp, #16
 294              		@ sp needed for prologue
 295 003e 80BD     		pop	{r7, pc}
 296              	.L21:
 297              		.align	2
 298              	.L20:
 299 0040 00010540 		.word	1074069760
 300 0044 FFFFFFF8 		.word	-117440513
 301              		.cfi_endproc
 302              	.LFE4:
 303              		.size	PWM_SetMode, .-PWM_SetMode
 304              		.section	.text.PWM_SetQDMode,"ax",%progbits
 305              		.align	2
 306              		.global	PWM_SetQDMode
 307              		.code	16
 308              		.thumb_func
 309              		.type	PWM_SetQDMode, %function
ARM GAS  C:\Users\gagan\AppData\Local\Temp\ccVfL2Av.s 			page 12


 310              	PWM_SetQDMode:
 311              	.LFB5:
 315:.\Generated_Source\PSoC4/PWM.c **** 
 316:.\Generated_Source\PSoC4/PWM.c **** 
 317:.\Generated_Source\PSoC4/PWM.c **** /*******************************************************************************
 318:.\Generated_Source\PSoC4/PWM.c **** * Function Name: PWM_SetQDMode
 319:.\Generated_Source\PSoC4/PWM.c **** ********************************************************************************
 320:.\Generated_Source\PSoC4/PWM.c **** *
 321:.\Generated_Source\PSoC4/PWM.c **** * Summary:
 322:.\Generated_Source\PSoC4/PWM.c **** *  Sets the the Quadrature Decoder to one of 3 supported modes.
 323:.\Generated_Source\PSoC4/PWM.c **** *  Is functionality is only applicable to Quadrature Decoder operation.
 324:.\Generated_Source\PSoC4/PWM.c **** *
 325:.\Generated_Source\PSoC4/PWM.c **** * Parameters:
 326:.\Generated_Source\PSoC4/PWM.c **** *  qdMode: Quadrature Decoder mode
 327:.\Generated_Source\PSoC4/PWM.c **** *   Values:
 328:.\Generated_Source\PSoC4/PWM.c **** *         - PWM_MODE_X1 - Counts on phi 1 rising
 329:.\Generated_Source\PSoC4/PWM.c **** *         - PWM_MODE_X2 - Counts on both edges of phi1 (2x faster)
 330:.\Generated_Source\PSoC4/PWM.c **** *         - PWM_MODE_X4 - Counts on both edges of phi1 and phi2
 331:.\Generated_Source\PSoC4/PWM.c **** *                                        (4x faster)
 332:.\Generated_Source\PSoC4/PWM.c **** *
 333:.\Generated_Source\PSoC4/PWM.c **** * Return:
 334:.\Generated_Source\PSoC4/PWM.c **** *  None
 335:.\Generated_Source\PSoC4/PWM.c **** *
 336:.\Generated_Source\PSoC4/PWM.c **** *******************************************************************************/
 337:.\Generated_Source\PSoC4/PWM.c **** void PWM_SetQDMode(uint32 qdMode)
 338:.\Generated_Source\PSoC4/PWM.c **** {
 312              		.loc 1 338 0
 313              		.cfi_startproc
 314 0000 80B5     		push	{r7, lr}
 315              	.LCFI13:
 316              		.cfi_def_cfa_offset 8
 317              		.cfi_offset 7, -8
 318              		.cfi_offset 14, -4
 319 0002 84B0     		sub	sp, sp, #16
 320              	.LCFI14:
 321              		.cfi_def_cfa_offset 24
 322 0004 00AF     		add	r7, sp, #0
 323              	.LCFI15:
 324              		.cfi_def_cfa_register 7
 325 0006 7860     		str	r0, [r7, #4]
 339:.\Generated_Source\PSoC4/PWM.c ****     uint8 enableInterrupts;
 340:.\Generated_Source\PSoC4/PWM.c **** 
 341:.\Generated_Source\PSoC4/PWM.c ****     enableInterrupts = CyEnterCriticalSection();
 326              		.loc 1 341 0
 327 0008 FFF7FEFF 		bl	CyEnterCriticalSection
 328 000c 031C     		mov	r3, r0
 329 000e 1A1C     		mov	r2, r3
 330 0010 3B1C     		mov	r3, r7
 331 0012 0F33     		add	r3, r3, #15
 332 0014 1A70     		strb	r2, [r3]
 342:.\Generated_Source\PSoC4/PWM.c **** 
 343:.\Generated_Source\PSoC4/PWM.c ****     PWM_CONTROL_REG &= (uint32)~PWM_QUAD_MODE_MASK;
 333              		.loc 1 343 0
 334 0016 0A4B     		ldr	r3, .L24
 335 0018 094A     		ldr	r2, .L24
 336 001a 1168     		ldr	r1, [r2]
 337 001c 094A     		ldr	r2, .L24+4
ARM GAS  C:\Users\gagan\AppData\Local\Temp\ccVfL2Av.s 			page 13


 338 001e 0A40     		and	r2, r2, r1
 339 0020 1A60     		str	r2, [r3]
 344:.\Generated_Source\PSoC4/PWM.c ****     PWM_CONTROL_REG |= qdMode;
 340              		.loc 1 344 0
 341 0022 074B     		ldr	r3, .L24
 342 0024 064A     		ldr	r2, .L24
 343 0026 1168     		ldr	r1, [r2]
 344 0028 7A68     		ldr	r2, [r7, #4]
 345 002a 0A43     		orr	r2, r2, r1
 346 002c 1A60     		str	r2, [r3]
 345:.\Generated_Source\PSoC4/PWM.c **** 
 346:.\Generated_Source\PSoC4/PWM.c ****     CyExitCriticalSection(enableInterrupts);
 347              		.loc 1 346 0
 348 002e 3B1C     		mov	r3, r7
 349 0030 0F33     		add	r3, r3, #15
 350 0032 1B78     		ldrb	r3, [r3]
 351 0034 181C     		mov	r0, r3
 352 0036 FFF7FEFF 		bl	CyExitCriticalSection
 347:.\Generated_Source\PSoC4/PWM.c **** }
 353              		.loc 1 347 0
 354 003a BD46     		mov	sp, r7
 355 003c 04B0     		add	sp, sp, #16
 356              		@ sp needed for prologue
 357 003e 80BD     		pop	{r7, pc}
 358              	.L25:
 359              		.align	2
 360              	.L24:
 361 0040 00010540 		.word	1074069760
 362 0044 FFFF8FFF 		.word	-7340033
 363              		.cfi_endproc
 364              	.LFE5:
 365              		.size	PWM_SetQDMode, .-PWM_SetQDMode
 366              		.section	.text.PWM_SetPrescaler,"ax",%progbits
 367              		.align	2
 368              		.global	PWM_SetPrescaler
 369              		.code	16
 370              		.thumb_func
 371              		.type	PWM_SetPrescaler, %function
 372              	PWM_SetPrescaler:
 373              	.LFB6:
 348:.\Generated_Source\PSoC4/PWM.c **** 
 349:.\Generated_Source\PSoC4/PWM.c **** 
 350:.\Generated_Source\PSoC4/PWM.c **** /*******************************************************************************
 351:.\Generated_Source\PSoC4/PWM.c **** * Function Name: PWM_SetPrescaler
 352:.\Generated_Source\PSoC4/PWM.c **** ********************************************************************************
 353:.\Generated_Source\PSoC4/PWM.c **** *
 354:.\Generated_Source\PSoC4/PWM.c **** * Summary:
 355:.\Generated_Source\PSoC4/PWM.c **** *  Sets the prescaler value that is applied to the clock input.  Not applicable
 356:.\Generated_Source\PSoC4/PWM.c **** *  to PWM with dead time mode or Quadrature Decoder mode.
 357:.\Generated_Source\PSoC4/PWM.c **** *
 358:.\Generated_Source\PSoC4/PWM.c **** * Parameters:
 359:.\Generated_Source\PSoC4/PWM.c **** *  prescaler: Prescaler divider value
 360:.\Generated_Source\PSoC4/PWM.c **** *   Values:
 361:.\Generated_Source\PSoC4/PWM.c **** *         - PWM_PRESCALE_DIVBY1    - Divide by 1 (no prescaling)
 362:.\Generated_Source\PSoC4/PWM.c **** *         - PWM_PRESCALE_DIVBY2    - Divide by 2
 363:.\Generated_Source\PSoC4/PWM.c **** *         - PWM_PRESCALE_DIVBY4    - Divide by 4
 364:.\Generated_Source\PSoC4/PWM.c **** *         - PWM_PRESCALE_DIVBY8    - Divide by 8
ARM GAS  C:\Users\gagan\AppData\Local\Temp\ccVfL2Av.s 			page 14


 365:.\Generated_Source\PSoC4/PWM.c **** *         - PWM_PRESCALE_DIVBY16   - Divide by 16
 366:.\Generated_Source\PSoC4/PWM.c **** *         - PWM_PRESCALE_DIVBY32   - Divide by 32
 367:.\Generated_Source\PSoC4/PWM.c **** *         - PWM_PRESCALE_DIVBY64   - Divide by 64
 368:.\Generated_Source\PSoC4/PWM.c **** *         - PWM_PRESCALE_DIVBY128  - Divide by 128
 369:.\Generated_Source\PSoC4/PWM.c **** *
 370:.\Generated_Source\PSoC4/PWM.c **** * Return:
 371:.\Generated_Source\PSoC4/PWM.c **** *  None
 372:.\Generated_Source\PSoC4/PWM.c **** *
 373:.\Generated_Source\PSoC4/PWM.c **** *******************************************************************************/
 374:.\Generated_Source\PSoC4/PWM.c **** void PWM_SetPrescaler(uint32 prescaler)
 375:.\Generated_Source\PSoC4/PWM.c **** {
 374              		.loc 1 375 0
 375              		.cfi_startproc
 376 0000 80B5     		push	{r7, lr}
 377              	.LCFI16:
 378              		.cfi_def_cfa_offset 8
 379              		.cfi_offset 7, -8
 380              		.cfi_offset 14, -4
 381 0002 84B0     		sub	sp, sp, #16
 382              	.LCFI17:
 383              		.cfi_def_cfa_offset 24
 384 0004 00AF     		add	r7, sp, #0
 385              	.LCFI18:
 386              		.cfi_def_cfa_register 7
 387 0006 7860     		str	r0, [r7, #4]
 376:.\Generated_Source\PSoC4/PWM.c ****     uint8 enableInterrupts;
 377:.\Generated_Source\PSoC4/PWM.c **** 
 378:.\Generated_Source\PSoC4/PWM.c ****     enableInterrupts = CyEnterCriticalSection();
 388              		.loc 1 378 0
 389 0008 FFF7FEFF 		bl	CyEnterCriticalSection
 390 000c 031C     		mov	r3, r0
 391 000e 1A1C     		mov	r2, r3
 392 0010 3B1C     		mov	r3, r7
 393 0012 0F33     		add	r3, r3, #15
 394 0014 1A70     		strb	r2, [r3]
 379:.\Generated_Source\PSoC4/PWM.c **** 
 380:.\Generated_Source\PSoC4/PWM.c ****     PWM_CONTROL_REG &= (uint32)~PWM_PRESCALER_MASK;
 395              		.loc 1 380 0
 396 0016 0A4B     		ldr	r3, .L28
 397 0018 094A     		ldr	r2, .L28
 398 001a 1168     		ldr	r1, [r2]
 399 001c 094A     		ldr	r2, .L28+4
 400 001e 0A40     		and	r2, r2, r1
 401 0020 1A60     		str	r2, [r3]
 381:.\Generated_Source\PSoC4/PWM.c ****     PWM_CONTROL_REG |= prescaler;
 402              		.loc 1 381 0
 403 0022 074B     		ldr	r3, .L28
 404 0024 064A     		ldr	r2, .L28
 405 0026 1168     		ldr	r1, [r2]
 406 0028 7A68     		ldr	r2, [r7, #4]
 407 002a 0A43     		orr	r2, r2, r1
 408 002c 1A60     		str	r2, [r3]
 382:.\Generated_Source\PSoC4/PWM.c **** 
 383:.\Generated_Source\PSoC4/PWM.c ****     CyExitCriticalSection(enableInterrupts);
 409              		.loc 1 383 0
 410 002e 3B1C     		mov	r3, r7
 411 0030 0F33     		add	r3, r3, #15
ARM GAS  C:\Users\gagan\AppData\Local\Temp\ccVfL2Av.s 			page 15


 412 0032 1B78     		ldrb	r3, [r3]
 413 0034 181C     		mov	r0, r3
 414 0036 FFF7FEFF 		bl	CyExitCriticalSection
 384:.\Generated_Source\PSoC4/PWM.c **** }
 415              		.loc 1 384 0
 416 003a BD46     		mov	sp, r7
 417 003c 04B0     		add	sp, sp, #16
 418              		@ sp needed for prologue
 419 003e 80BD     		pop	{r7, pc}
 420              	.L29:
 421              		.align	2
 422              	.L28:
 423 0040 00010540 		.word	1074069760
 424 0044 FF00FFFF 		.word	-65281
 425              		.cfi_endproc
 426              	.LFE6:
 427              		.size	PWM_SetPrescaler, .-PWM_SetPrescaler
 428              		.section	.text.PWM_SetOneShot,"ax",%progbits
 429              		.align	2
 430              		.global	PWM_SetOneShot
 431              		.code	16
 432              		.thumb_func
 433              		.type	PWM_SetOneShot, %function
 434              	PWM_SetOneShot:
 435              	.LFB7:
 385:.\Generated_Source\PSoC4/PWM.c **** 
 386:.\Generated_Source\PSoC4/PWM.c **** 
 387:.\Generated_Source\PSoC4/PWM.c **** /*******************************************************************************
 388:.\Generated_Source\PSoC4/PWM.c **** * Function Name: PWM_SetOneShot
 389:.\Generated_Source\PSoC4/PWM.c **** ********************************************************************************
 390:.\Generated_Source\PSoC4/PWM.c **** *
 391:.\Generated_Source\PSoC4/PWM.c **** * Summary:
 392:.\Generated_Source\PSoC4/PWM.c **** *  Writes the register that controls whether the PWM runs
 393:.\Generated_Source\PSoC4/PWM.c **** *  continuously or stops when terminal count is reached.  By default the
 394:.\Generated_Source\PSoC4/PWM.c **** *  PWM operates in continuous mode.
 395:.\Generated_Source\PSoC4/PWM.c **** *
 396:.\Generated_Source\PSoC4/PWM.c **** * Parameters:
 397:.\Generated_Source\PSoC4/PWM.c **** *  oneShotEnable
 398:.\Generated_Source\PSoC4/PWM.c **** *   Values:
 399:.\Generated_Source\PSoC4/PWM.c **** *     - 0 - Continuous
 400:.\Generated_Source\PSoC4/PWM.c **** *     - 1 - Enable One Shot
 401:.\Generated_Source\PSoC4/PWM.c **** *
 402:.\Generated_Source\PSoC4/PWM.c **** * Return:
 403:.\Generated_Source\PSoC4/PWM.c **** *  None
 404:.\Generated_Source\PSoC4/PWM.c **** *
 405:.\Generated_Source\PSoC4/PWM.c **** *******************************************************************************/
 406:.\Generated_Source\PSoC4/PWM.c **** void PWM_SetOneShot(uint32 oneShotEnable)
 407:.\Generated_Source\PSoC4/PWM.c **** {
 436              		.loc 1 407 0
 437              		.cfi_startproc
 438 0000 80B5     		push	{r7, lr}
 439              	.LCFI19:
 440              		.cfi_def_cfa_offset 8
 441              		.cfi_offset 7, -8
 442              		.cfi_offset 14, -4
 443 0002 84B0     		sub	sp, sp, #16
 444              	.LCFI20:
ARM GAS  C:\Users\gagan\AppData\Local\Temp\ccVfL2Av.s 			page 16


 445              		.cfi_def_cfa_offset 24
 446 0004 00AF     		add	r7, sp, #0
 447              	.LCFI21:
 448              		.cfi_def_cfa_register 7
 449 0006 7860     		str	r0, [r7, #4]
 408:.\Generated_Source\PSoC4/PWM.c ****     uint8 enableInterrupts;
 409:.\Generated_Source\PSoC4/PWM.c **** 
 410:.\Generated_Source\PSoC4/PWM.c ****     enableInterrupts = CyEnterCriticalSection();
 450              		.loc 1 410 0
 451 0008 FFF7FEFF 		bl	CyEnterCriticalSection
 452 000c 031C     		mov	r3, r0
 453 000e 1A1C     		mov	r2, r3
 454 0010 3B1C     		mov	r3, r7
 455 0012 0F33     		add	r3, r3, #15
 456 0014 1A70     		strb	r2, [r3]
 411:.\Generated_Source\PSoC4/PWM.c **** 
 412:.\Generated_Source\PSoC4/PWM.c ****     PWM_CONTROL_REG &= (uint32)~PWM_ONESHOT_MASK;
 457              		.loc 1 412 0
 458 0016 0C4B     		ldr	r3, .L32
 459 0018 0B4A     		ldr	r2, .L32
 460 001a 1168     		ldr	r1, [r2]
 461 001c 0B4A     		ldr	r2, .L32+4
 462 001e 0A40     		and	r2, r2, r1
 463 0020 1A60     		str	r2, [r3]
 413:.\Generated_Source\PSoC4/PWM.c ****     PWM_CONTROL_REG |= ((uint32)((oneShotEnable & PWM_1BIT_MASK) <<
 464              		.loc 1 413 0
 465 0022 094B     		ldr	r3, .L32
 466 0024 084A     		ldr	r2, .L32
 467 0026 1168     		ldr	r1, [r2]
 468 0028 7868     		ldr	r0, [r7, #4]
 469 002a 0122     		mov	r2, #1
 470 002c 0240     		and	r2, r2, r0
 471 002e 9204     		lsl	r2, r2, #18
 472 0030 0A43     		orr	r2, r2, r1
 473 0032 1A60     		str	r2, [r3]
 414:.\Generated_Source\PSoC4/PWM.c ****                                                                PWM_ONESHOT_SHIFT));
 415:.\Generated_Source\PSoC4/PWM.c **** 
 416:.\Generated_Source\PSoC4/PWM.c ****     CyExitCriticalSection(enableInterrupts);
 474              		.loc 1 416 0
 475 0034 3B1C     		mov	r3, r7
 476 0036 0F33     		add	r3, r3, #15
 477 0038 1B78     		ldrb	r3, [r3]
 478 003a 181C     		mov	r0, r3
 479 003c FFF7FEFF 		bl	CyExitCriticalSection
 417:.\Generated_Source\PSoC4/PWM.c **** }
 480              		.loc 1 417 0
 481 0040 BD46     		mov	sp, r7
 482 0042 04B0     		add	sp, sp, #16
 483              		@ sp needed for prologue
 484 0044 80BD     		pop	{r7, pc}
 485              	.L33:
 486 0046 C046     		.align	2
 487              	.L32:
 488 0048 00010540 		.word	1074069760
 489 004c FFFFFBFF 		.word	-262145
 490              		.cfi_endproc
 491              	.LFE7:
ARM GAS  C:\Users\gagan\AppData\Local\Temp\ccVfL2Av.s 			page 17


 492              		.size	PWM_SetOneShot, .-PWM_SetOneShot
 493              		.section	.text.PWM_SetPWMMode,"ax",%progbits
 494              		.align	2
 495              		.global	PWM_SetPWMMode
 496              		.code	16
 497              		.thumb_func
 498              		.type	PWM_SetPWMMode, %function
 499              	PWM_SetPWMMode:
 500              	.LFB8:
 418:.\Generated_Source\PSoC4/PWM.c **** 
 419:.\Generated_Source\PSoC4/PWM.c **** 
 420:.\Generated_Source\PSoC4/PWM.c **** /*******************************************************************************
 421:.\Generated_Source\PSoC4/PWM.c **** * Function Name: PWM_SetPWMMode
 422:.\Generated_Source\PSoC4/PWM.c **** ********************************************************************************
 423:.\Generated_Source\PSoC4/PWM.c **** *
 424:.\Generated_Source\PSoC4/PWM.c **** * Summary:
 425:.\Generated_Source\PSoC4/PWM.c **** *  Writes the control register that determines what mode of operation the PWM
 426:.\Generated_Source\PSoC4/PWM.c **** *  output lines are driven in.  There is a setting for what to do on a
 427:.\Generated_Source\PSoC4/PWM.c **** *  comparison match (CC_MATCH), on an overflow (OVERFLOW) and on an underflow
 428:.\Generated_Source\PSoC4/PWM.c **** *  (UNDERFLOW).  The value for each of the 3 must be ORed together to form the
 429:.\Generated_Source\PSoC4/PWM.c **** *  mode.
 430:.\Generated_Source\PSoC4/PWM.c **** *
 431:.\Generated_Source\PSoC4/PWM.c **** * Parameters:
 432:.\Generated_Source\PSoC4/PWM.c **** *  modeMask: Combination of the 3 mode settings.  Mask must include a value for
 433:.\Generated_Source\PSoC4/PWM.c **** *  each of the 3 or use one of the preconfigured PWM settings.
 434:.\Generated_Source\PSoC4/PWM.c **** *   Values:
 435:.\Generated_Source\PSoC4/PWM.c **** *     - CC_MATCH_SET        - Set on comparison match
 436:.\Generated_Source\PSoC4/PWM.c **** *     - CC_MATCH_CLEAR      - Clear on comparison match
 437:.\Generated_Source\PSoC4/PWM.c **** *     - CC_MATCH_INVERT     - Invert on comparison match
 438:.\Generated_Source\PSoC4/PWM.c **** *     - CC_MATCH_NO_CHANGE  - No change on comparison match
 439:.\Generated_Source\PSoC4/PWM.c **** *     - OVERLOW_SET         - Set on overflow
 440:.\Generated_Source\PSoC4/PWM.c **** *     - OVERLOW_CLEAR       - Clear on overflow
 441:.\Generated_Source\PSoC4/PWM.c **** *     - OVERLOW_INVERT      - Invert on overflow
 442:.\Generated_Source\PSoC4/PWM.c **** *     - OVERLOW_NO_CHANGE   - No change on overflow
 443:.\Generated_Source\PSoC4/PWM.c **** *     - UNDERFLOW_SET       - Set on underflow
 444:.\Generated_Source\PSoC4/PWM.c **** *     - UNDERFLOW_CLEAR     - Clear on underflow
 445:.\Generated_Source\PSoC4/PWM.c **** *     - UNDERFLOW_INVERT    - Invert on underflow
 446:.\Generated_Source\PSoC4/PWM.c **** *     - UNDERFLOW_NO_CHANGE - No change on underflow
 447:.\Generated_Source\PSoC4/PWM.c **** *     - PWM_MODE_LEFT       - Setting for left aligned PWM.  Should be combined
 448:.\Generated_Source\PSoC4/PWM.c **** *                             with up counting mode
 449:.\Generated_Source\PSoC4/PWM.c **** *     - PWM_MODE_RIGHT      - Setting for right aligned PWM.  Should be combined
 450:.\Generated_Source\PSoC4/PWM.c **** *                             with down counting mode
 451:.\Generated_Source\PSoC4/PWM.c **** *     - PWM_MODE_CENTER     - Setting for center aligned PWM.  Should be 
 452:.\Generated_Source\PSoC4/PWM.c **** *                             combined with up/down 0 mode
 453:.\Generated_Source\PSoC4/PWM.c **** *     - PWM_MODE_ASYM       - Setting for asymmetric PWM.  Should be combined
 454:.\Generated_Source\PSoC4/PWM.c **** *                             with up/down 1 mode
 455:.\Generated_Source\PSoC4/PWM.c **** *
 456:.\Generated_Source\PSoC4/PWM.c **** * Return:
 457:.\Generated_Source\PSoC4/PWM.c **** *  None
 458:.\Generated_Source\PSoC4/PWM.c **** *
 459:.\Generated_Source\PSoC4/PWM.c **** *******************************************************************************/
 460:.\Generated_Source\PSoC4/PWM.c **** void PWM_SetPWMMode(uint32 modeMask)
 461:.\Generated_Source\PSoC4/PWM.c **** {
 501              		.loc 1 461 0
 502              		.cfi_startproc
 503 0000 80B5     		push	{r7, lr}
 504              	.LCFI22:
ARM GAS  C:\Users\gagan\AppData\Local\Temp\ccVfL2Av.s 			page 18


 505              		.cfi_def_cfa_offset 8
 506              		.cfi_offset 7, -8
 507              		.cfi_offset 14, -4
 508 0002 82B0     		sub	sp, sp, #8
 509              	.LCFI23:
 510              		.cfi_def_cfa_offset 16
 511 0004 00AF     		add	r7, sp, #0
 512              	.LCFI24:
 513              		.cfi_def_cfa_register 7
 514 0006 7860     		str	r0, [r7, #4]
 462:.\Generated_Source\PSoC4/PWM.c ****     PWM_TRIG_CONTROL2_REG = (modeMask & PWM_6BIT_MASK);
 515              		.loc 1 462 0
 516 0008 034B     		ldr	r3, .L36
 517 000a 7968     		ldr	r1, [r7, #4]
 518 000c 3F22     		mov	r2, #63
 519 000e 0A40     		and	r2, r2, r1
 520 0010 1A60     		str	r2, [r3]
 463:.\Generated_Source\PSoC4/PWM.c **** }
 521              		.loc 1 463 0
 522 0012 BD46     		mov	sp, r7
 523 0014 02B0     		add	sp, sp, #8
 524              		@ sp needed for prologue
 525 0016 80BD     		pop	{r7, pc}
 526              	.L37:
 527              		.align	2
 528              	.L36:
 529 0018 28010540 		.word	1074069800
 530              		.cfi_endproc
 531              	.LFE8:
 532              		.size	PWM_SetPWMMode, .-PWM_SetPWMMode
 533              		.section	.text.PWM_SetPWMSyncKill,"ax",%progbits
 534              		.align	2
 535              		.global	PWM_SetPWMSyncKill
 536              		.code	16
 537              		.thumb_func
 538              		.type	PWM_SetPWMSyncKill, %function
 539              	PWM_SetPWMSyncKill:
 540              	.LFB9:
 464:.\Generated_Source\PSoC4/PWM.c **** 
 465:.\Generated_Source\PSoC4/PWM.c **** 
 466:.\Generated_Source\PSoC4/PWM.c **** 
 467:.\Generated_Source\PSoC4/PWM.c **** /*******************************************************************************
 468:.\Generated_Source\PSoC4/PWM.c **** * Function Name: PWM_SetPWMSyncKill
 469:.\Generated_Source\PSoC4/PWM.c **** ********************************************************************************
 470:.\Generated_Source\PSoC4/PWM.c **** *
 471:.\Generated_Source\PSoC4/PWM.c **** * Summary:
 472:.\Generated_Source\PSoC4/PWM.c **** *  Writes the register that controls whether the PWM kill signal (stop input)
 473:.\Generated_Source\PSoC4/PWM.c **** *  causes an asynchronous or synchronous kill operation.  By default the kill
 474:.\Generated_Source\PSoC4/PWM.c **** *  operation is asynchronous.  This functionality is only applicable to PWM and
 475:.\Generated_Source\PSoC4/PWM.c **** *  PWM with dead time modes.
 476:.\Generated_Source\PSoC4/PWM.c **** *
 477:.\Generated_Source\PSoC4/PWM.c **** *  For Synchronous mode the kill signal disables both the line and line_n
 478:.\Generated_Source\PSoC4/PWM.c **** *  signals until the next terminal count.
 479:.\Generated_Source\PSoC4/PWM.c **** *
 480:.\Generated_Source\PSoC4/PWM.c **** *  For Asynchronous mode the kill signal disables both the line and line_n
 481:.\Generated_Source\PSoC4/PWM.c **** *  signals when the kill signal is present.  This mode should only be used
 482:.\Generated_Source\PSoC4/PWM.c **** *  when the kill signal (stop input) is configured in pass through mode
ARM GAS  C:\Users\gagan\AppData\Local\Temp\ccVfL2Av.s 			page 19


 483:.\Generated_Source\PSoC4/PWM.c **** *  (Level sensitive signal).
 484:.\Generated_Source\PSoC4/PWM.c **** 
 485:.\Generated_Source\PSoC4/PWM.c **** *
 486:.\Generated_Source\PSoC4/PWM.c **** * Parameters:
 487:.\Generated_Source\PSoC4/PWM.c **** *  syncKillEnable
 488:.\Generated_Source\PSoC4/PWM.c **** *   Values:
 489:.\Generated_Source\PSoC4/PWM.c **** *     - 0 - Asynchronous
 490:.\Generated_Source\PSoC4/PWM.c **** *     - 1 - Synchronous
 491:.\Generated_Source\PSoC4/PWM.c **** *
 492:.\Generated_Source\PSoC4/PWM.c **** * Return:
 493:.\Generated_Source\PSoC4/PWM.c **** *  None
 494:.\Generated_Source\PSoC4/PWM.c **** *
 495:.\Generated_Source\PSoC4/PWM.c **** *******************************************************************************/
 496:.\Generated_Source\PSoC4/PWM.c **** void PWM_SetPWMSyncKill(uint32 syncKillEnable)
 497:.\Generated_Source\PSoC4/PWM.c **** {
 541              		.loc 1 497 0
 542              		.cfi_startproc
 543 0000 80B5     		push	{r7, lr}
 544              	.LCFI25:
 545              		.cfi_def_cfa_offset 8
 546              		.cfi_offset 7, -8
 547              		.cfi_offset 14, -4
 548 0002 84B0     		sub	sp, sp, #16
 549              	.LCFI26:
 550              		.cfi_def_cfa_offset 24
 551 0004 00AF     		add	r7, sp, #0
 552              	.LCFI27:
 553              		.cfi_def_cfa_register 7
 554 0006 7860     		str	r0, [r7, #4]
 498:.\Generated_Source\PSoC4/PWM.c ****     uint8 enableInterrupts;
 499:.\Generated_Source\PSoC4/PWM.c **** 
 500:.\Generated_Source\PSoC4/PWM.c ****     enableInterrupts = CyEnterCriticalSection();
 555              		.loc 1 500 0
 556 0008 FFF7FEFF 		bl	CyEnterCriticalSection
 557 000c 031C     		mov	r3, r0
 558 000e 1A1C     		mov	r2, r3
 559 0010 3B1C     		mov	r3, r7
 560 0012 0F33     		add	r3, r3, #15
 561 0014 1A70     		strb	r2, [r3]
 501:.\Generated_Source\PSoC4/PWM.c **** 
 502:.\Generated_Source\PSoC4/PWM.c ****     PWM_CONTROL_REG &= (uint32)~PWM_PWM_SYNC_KILL_MASK;
 562              		.loc 1 502 0
 563 0016 0C4B     		ldr	r3, .L40
 564 0018 0B4A     		ldr	r2, .L40
 565 001a 1268     		ldr	r2, [r2]
 566 001c 0421     		mov	r1, #4
 567 001e 8A43     		bic	r2, r2, r1
 568 0020 1A60     		str	r2, [r3]
 503:.\Generated_Source\PSoC4/PWM.c ****     PWM_CONTROL_REG |= ((uint32)((syncKillEnable & PWM_1BIT_MASK)  <<
 569              		.loc 1 503 0
 570 0022 094B     		ldr	r3, .L40
 571 0024 084A     		ldr	r2, .L40
 572 0026 1168     		ldr	r1, [r2]
 573 0028 7868     		ldr	r0, [r7, #4]
 574 002a 0122     		mov	r2, #1
 575 002c 0240     		and	r2, r2, r0
 576 002e 9200     		lsl	r2, r2, #2
ARM GAS  C:\Users\gagan\AppData\Local\Temp\ccVfL2Av.s 			page 20


 577 0030 0A43     		orr	r2, r2, r1
 578 0032 1A60     		str	r2, [r3]
 504:.\Generated_Source\PSoC4/PWM.c ****                                                PWM_PWM_SYNC_KILL_SHIFT));
 505:.\Generated_Source\PSoC4/PWM.c **** 
 506:.\Generated_Source\PSoC4/PWM.c ****     CyExitCriticalSection(enableInterrupts);
 579              		.loc 1 506 0
 580 0034 3B1C     		mov	r3, r7
 581 0036 0F33     		add	r3, r3, #15
 582 0038 1B78     		ldrb	r3, [r3]
 583 003a 181C     		mov	r0, r3
 584 003c FFF7FEFF 		bl	CyExitCriticalSection
 507:.\Generated_Source\PSoC4/PWM.c **** }
 585              		.loc 1 507 0
 586 0040 BD46     		mov	sp, r7
 587 0042 04B0     		add	sp, sp, #16
 588              		@ sp needed for prologue
 589 0044 80BD     		pop	{r7, pc}
 590              	.L41:
 591 0046 C046     		.align	2
 592              	.L40:
 593 0048 00010540 		.word	1074069760
 594              		.cfi_endproc
 595              	.LFE9:
 596              		.size	PWM_SetPWMSyncKill, .-PWM_SetPWMSyncKill
 597              		.section	.text.PWM_SetPWMStopOnKill,"ax",%progbits
 598              		.align	2
 599              		.global	PWM_SetPWMStopOnKill
 600              		.code	16
 601              		.thumb_func
 602              		.type	PWM_SetPWMStopOnKill, %function
 603              	PWM_SetPWMStopOnKill:
 604              	.LFB10:
 508:.\Generated_Source\PSoC4/PWM.c **** 
 509:.\Generated_Source\PSoC4/PWM.c **** 
 510:.\Generated_Source\PSoC4/PWM.c **** /*******************************************************************************
 511:.\Generated_Source\PSoC4/PWM.c **** * Function Name: PWM_SetPWMStopOnKill
 512:.\Generated_Source\PSoC4/PWM.c **** ********************************************************************************
 513:.\Generated_Source\PSoC4/PWM.c **** *
 514:.\Generated_Source\PSoC4/PWM.c **** * Summary:
 515:.\Generated_Source\PSoC4/PWM.c **** *  Writes the register that controls whether the PWM kill signal (stop input)
 516:.\Generated_Source\PSoC4/PWM.c **** *  causes the PWM counter to stop.  By default the kill operation does not stop
 517:.\Generated_Source\PSoC4/PWM.c **** *  the counter.  This functionality is only applicable to the three PWM modes.
 518:.\Generated_Source\PSoC4/PWM.c **** *
 519:.\Generated_Source\PSoC4/PWM.c **** *
 520:.\Generated_Source\PSoC4/PWM.c **** * Parameters:
 521:.\Generated_Source\PSoC4/PWM.c **** *  stopOnKillEnable
 522:.\Generated_Source\PSoC4/PWM.c **** *   Values:
 523:.\Generated_Source\PSoC4/PWM.c **** *     - 0 - Don't stop
 524:.\Generated_Source\PSoC4/PWM.c **** *     - 1 - Stop
 525:.\Generated_Source\PSoC4/PWM.c **** *
 526:.\Generated_Source\PSoC4/PWM.c **** * Return:
 527:.\Generated_Source\PSoC4/PWM.c **** *  None
 528:.\Generated_Source\PSoC4/PWM.c **** *
 529:.\Generated_Source\PSoC4/PWM.c **** *******************************************************************************/
 530:.\Generated_Source\PSoC4/PWM.c **** void PWM_SetPWMStopOnKill(uint32 stopOnKillEnable)
 531:.\Generated_Source\PSoC4/PWM.c **** {
 605              		.loc 1 531 0
ARM GAS  C:\Users\gagan\AppData\Local\Temp\ccVfL2Av.s 			page 21


 606              		.cfi_startproc
 607 0000 80B5     		push	{r7, lr}
 608              	.LCFI28:
 609              		.cfi_def_cfa_offset 8
 610              		.cfi_offset 7, -8
 611              		.cfi_offset 14, -4
 612 0002 84B0     		sub	sp, sp, #16
 613              	.LCFI29:
 614              		.cfi_def_cfa_offset 24
 615 0004 00AF     		add	r7, sp, #0
 616              	.LCFI30:
 617              		.cfi_def_cfa_register 7
 618 0006 7860     		str	r0, [r7, #4]
 532:.\Generated_Source\PSoC4/PWM.c ****     uint8 enableInterrupts;
 533:.\Generated_Source\PSoC4/PWM.c **** 
 534:.\Generated_Source\PSoC4/PWM.c ****     enableInterrupts = CyEnterCriticalSection();
 619              		.loc 1 534 0
 620 0008 FFF7FEFF 		bl	CyEnterCriticalSection
 621 000c 031C     		mov	r3, r0
 622 000e 1A1C     		mov	r2, r3
 623 0010 3B1C     		mov	r3, r7
 624 0012 0F33     		add	r3, r3, #15
 625 0014 1A70     		strb	r2, [r3]
 535:.\Generated_Source\PSoC4/PWM.c **** 
 536:.\Generated_Source\PSoC4/PWM.c ****     PWM_CONTROL_REG &= (uint32)~PWM_PWM_STOP_KILL_MASK;
 626              		.loc 1 536 0
 627 0016 0C4B     		ldr	r3, .L44
 628 0018 0B4A     		ldr	r2, .L44
 629 001a 1268     		ldr	r2, [r2]
 630 001c 0821     		mov	r1, #8
 631 001e 8A43     		bic	r2, r2, r1
 632 0020 1A60     		str	r2, [r3]
 537:.\Generated_Source\PSoC4/PWM.c ****     PWM_CONTROL_REG |= ((uint32)((stopOnKillEnable & PWM_1BIT_MASK)  <<
 633              		.loc 1 537 0
 634 0022 094B     		ldr	r3, .L44
 635 0024 084A     		ldr	r2, .L44
 636 0026 1168     		ldr	r1, [r2]
 637 0028 7868     		ldr	r0, [r7, #4]
 638 002a 0122     		mov	r2, #1
 639 002c 0240     		and	r2, r2, r0
 640 002e D200     		lsl	r2, r2, #3
 641 0030 0A43     		orr	r2, r2, r1
 642 0032 1A60     		str	r2, [r3]
 538:.\Generated_Source\PSoC4/PWM.c ****                                                          PWM_PWM_STOP_KILL_SHIFT));
 539:.\Generated_Source\PSoC4/PWM.c **** 
 540:.\Generated_Source\PSoC4/PWM.c ****     CyExitCriticalSection(enableInterrupts);
 643              		.loc 1 540 0
 644 0034 3B1C     		mov	r3, r7
 645 0036 0F33     		add	r3, r3, #15
 646 0038 1B78     		ldrb	r3, [r3]
 647 003a 181C     		mov	r0, r3
 648 003c FFF7FEFF 		bl	CyExitCriticalSection
 541:.\Generated_Source\PSoC4/PWM.c **** }
 649              		.loc 1 541 0
 650 0040 BD46     		mov	sp, r7
 651 0042 04B0     		add	sp, sp, #16
 652              		@ sp needed for prologue
ARM GAS  C:\Users\gagan\AppData\Local\Temp\ccVfL2Av.s 			page 22


 653 0044 80BD     		pop	{r7, pc}
 654              	.L45:
 655 0046 C046     		.align	2
 656              	.L44:
 657 0048 00010540 		.word	1074069760
 658              		.cfi_endproc
 659              	.LFE10:
 660              		.size	PWM_SetPWMStopOnKill, .-PWM_SetPWMStopOnKill
 661              		.section	.text.PWM_SetPWMDeadTime,"ax",%progbits
 662              		.align	2
 663              		.global	PWM_SetPWMDeadTime
 664              		.code	16
 665              		.thumb_func
 666              		.type	PWM_SetPWMDeadTime, %function
 667              	PWM_SetPWMDeadTime:
 668              	.LFB11:
 542:.\Generated_Source\PSoC4/PWM.c **** 
 543:.\Generated_Source\PSoC4/PWM.c **** 
 544:.\Generated_Source\PSoC4/PWM.c **** /*******************************************************************************
 545:.\Generated_Source\PSoC4/PWM.c **** * Function Name: PWM_SetPWMDeadTime
 546:.\Generated_Source\PSoC4/PWM.c **** ********************************************************************************
 547:.\Generated_Source\PSoC4/PWM.c **** *
 548:.\Generated_Source\PSoC4/PWM.c **** * Summary:
 549:.\Generated_Source\PSoC4/PWM.c **** *  Writes the dead time control value.  This value delays the rising edge of
 550:.\Generated_Source\PSoC4/PWM.c **** *  both the line and line_n signals the designated number of cycles resulting
 551:.\Generated_Source\PSoC4/PWM.c **** *  in both signals being inactive for that many cycles.  This functionality is
 552:.\Generated_Source\PSoC4/PWM.c **** *  only applicable to the PWM in dead time mode.
 553:.\Generated_Source\PSoC4/PWM.c **** 
 554:.\Generated_Source\PSoC4/PWM.c **** *
 555:.\Generated_Source\PSoC4/PWM.c **** * Parameters:
 556:.\Generated_Source\PSoC4/PWM.c **** *  Dead time to insert
 557:.\Generated_Source\PSoC4/PWM.c **** *   Values: 0 to 255
 558:.\Generated_Source\PSoC4/PWM.c **** *
 559:.\Generated_Source\PSoC4/PWM.c **** * Return:
 560:.\Generated_Source\PSoC4/PWM.c **** *  None
 561:.\Generated_Source\PSoC4/PWM.c **** *
 562:.\Generated_Source\PSoC4/PWM.c **** *******************************************************************************/
 563:.\Generated_Source\PSoC4/PWM.c **** void PWM_SetPWMDeadTime(uint32 deadTime)
 564:.\Generated_Source\PSoC4/PWM.c **** {
 669              		.loc 1 564 0
 670              		.cfi_startproc
 671 0000 80B5     		push	{r7, lr}
 672              	.LCFI31:
 673              		.cfi_def_cfa_offset 8
 674              		.cfi_offset 7, -8
 675              		.cfi_offset 14, -4
 676 0002 84B0     		sub	sp, sp, #16
 677              	.LCFI32:
 678              		.cfi_def_cfa_offset 24
 679 0004 00AF     		add	r7, sp, #0
 680              	.LCFI33:
 681              		.cfi_def_cfa_register 7
 682 0006 7860     		str	r0, [r7, #4]
 565:.\Generated_Source\PSoC4/PWM.c ****     uint8 enableInterrupts;
 566:.\Generated_Source\PSoC4/PWM.c **** 
 567:.\Generated_Source\PSoC4/PWM.c ****     enableInterrupts = CyEnterCriticalSection();
 683              		.loc 1 567 0
ARM GAS  C:\Users\gagan\AppData\Local\Temp\ccVfL2Av.s 			page 23


 684 0008 FFF7FEFF 		bl	CyEnterCriticalSection
 685 000c 031C     		mov	r3, r0
 686 000e 1A1C     		mov	r2, r3
 687 0010 3B1C     		mov	r3, r7
 688 0012 0F33     		add	r3, r3, #15
 689 0014 1A70     		strb	r2, [r3]
 568:.\Generated_Source\PSoC4/PWM.c **** 
 569:.\Generated_Source\PSoC4/PWM.c ****     PWM_CONTROL_REG &= (uint32)~PWM_PRESCALER_MASK;
 690              		.loc 1 569 0
 691 0016 0C4B     		ldr	r3, .L48
 692 0018 0B4A     		ldr	r2, .L48
 693 001a 1168     		ldr	r1, [r2]
 694 001c 0B4A     		ldr	r2, .L48+4
 695 001e 0A40     		and	r2, r2, r1
 696 0020 1A60     		str	r2, [r3]
 570:.\Generated_Source\PSoC4/PWM.c ****     PWM_CONTROL_REG |= ((uint32)((deadTime & PWM_8BIT_MASK) <<
 697              		.loc 1 570 0
 698 0022 094B     		ldr	r3, .L48
 699 0024 084A     		ldr	r2, .L48
 700 0026 1168     		ldr	r1, [r2]
 701 0028 7A68     		ldr	r2, [r7, #4]
 702 002a 1202     		lsl	r2, r2, #8
 703 002c 1204     		lsl	r2, r2, #16
 704 002e 120C     		lsr	r2, r2, #16
 705 0030 0A43     		orr	r2, r2, r1
 706 0032 1A60     		str	r2, [r3]
 571:.\Generated_Source\PSoC4/PWM.c ****                                                           PWM_PRESCALER_SHIFT));
 572:.\Generated_Source\PSoC4/PWM.c **** 
 573:.\Generated_Source\PSoC4/PWM.c ****     CyExitCriticalSection(enableInterrupts);
 707              		.loc 1 573 0
 708 0034 3B1C     		mov	r3, r7
 709 0036 0F33     		add	r3, r3, #15
 710 0038 1B78     		ldrb	r3, [r3]
 711 003a 181C     		mov	r0, r3
 712 003c FFF7FEFF 		bl	CyExitCriticalSection
 574:.\Generated_Source\PSoC4/PWM.c **** }
 713              		.loc 1 574 0
 714 0040 BD46     		mov	sp, r7
 715 0042 04B0     		add	sp, sp, #16
 716              		@ sp needed for prologue
 717 0044 80BD     		pop	{r7, pc}
 718              	.L49:
 719 0046 C046     		.align	2
 720              	.L48:
 721 0048 00010540 		.word	1074069760
 722 004c FF00FFFF 		.word	-65281
 723              		.cfi_endproc
 724              	.LFE11:
 725              		.size	PWM_SetPWMDeadTime, .-PWM_SetPWMDeadTime
 726              		.section	.text.PWM_SetPWMInvert,"ax",%progbits
 727              		.align	2
 728              		.global	PWM_SetPWMInvert
 729              		.code	16
 730              		.thumb_func
 731              		.type	PWM_SetPWMInvert, %function
 732              	PWM_SetPWMInvert:
 733              	.LFB12:
ARM GAS  C:\Users\gagan\AppData\Local\Temp\ccVfL2Av.s 			page 24


 575:.\Generated_Source\PSoC4/PWM.c **** 
 576:.\Generated_Source\PSoC4/PWM.c **** 
 577:.\Generated_Source\PSoC4/PWM.c **** /*******************************************************************************
 578:.\Generated_Source\PSoC4/PWM.c **** * Function Name: PWM_SetPWMInvert
 579:.\Generated_Source\PSoC4/PWM.c **** ********************************************************************************
 580:.\Generated_Source\PSoC4/PWM.c **** *
 581:.\Generated_Source\PSoC4/PWM.c **** * Summary:
 582:.\Generated_Source\PSoC4/PWM.c **** *  Writes the bits that control whether the line and line_n outputs are
 583:.\Generated_Source\PSoC4/PWM.c **** *  inverted from their normal output values.  This functionality is only
 584:.\Generated_Source\PSoC4/PWM.c **** *  applicable to the three PWM modes.
 585:.\Generated_Source\PSoC4/PWM.c **** *
 586:.\Generated_Source\PSoC4/PWM.c **** * Parameters:
 587:.\Generated_Source\PSoC4/PWM.c **** *  mask: Mask of outputs to invert.
 588:.\Generated_Source\PSoC4/PWM.c **** *   Values:
 589:.\Generated_Source\PSoC4/PWM.c **** *         - PWM_INVERT_LINE   - Inverts the line output
 590:.\Generated_Source\PSoC4/PWM.c **** *         - PWM_INVERT_LINE_N - Inverts the line_n output
 591:.\Generated_Source\PSoC4/PWM.c **** *
 592:.\Generated_Source\PSoC4/PWM.c **** * Return:
 593:.\Generated_Source\PSoC4/PWM.c **** *  None
 594:.\Generated_Source\PSoC4/PWM.c **** *
 595:.\Generated_Source\PSoC4/PWM.c **** *******************************************************************************/
 596:.\Generated_Source\PSoC4/PWM.c **** void PWM_SetPWMInvert(uint32 mask)
 597:.\Generated_Source\PSoC4/PWM.c **** {
 734              		.loc 1 597 0
 735              		.cfi_startproc
 736 0000 80B5     		push	{r7, lr}
 737              	.LCFI34:
 738              		.cfi_def_cfa_offset 8
 739              		.cfi_offset 7, -8
 740              		.cfi_offset 14, -4
 741 0002 84B0     		sub	sp, sp, #16
 742              	.LCFI35:
 743              		.cfi_def_cfa_offset 24
 744 0004 00AF     		add	r7, sp, #0
 745              	.LCFI36:
 746              		.cfi_def_cfa_register 7
 747 0006 7860     		str	r0, [r7, #4]
 598:.\Generated_Source\PSoC4/PWM.c ****     uint8 enableInterrupts;
 599:.\Generated_Source\PSoC4/PWM.c **** 
 600:.\Generated_Source\PSoC4/PWM.c ****     enableInterrupts = CyEnterCriticalSection();
 748              		.loc 1 600 0
 749 0008 FFF7FEFF 		bl	CyEnterCriticalSection
 750 000c 031C     		mov	r3, r0
 751 000e 1A1C     		mov	r2, r3
 752 0010 3B1C     		mov	r3, r7
 753 0012 0F33     		add	r3, r3, #15
 754 0014 1A70     		strb	r2, [r3]
 601:.\Generated_Source\PSoC4/PWM.c **** 
 602:.\Generated_Source\PSoC4/PWM.c ****     PWM_CONTROL_REG &= (uint32)~PWM_INV_OUT_MASK;
 755              		.loc 1 602 0
 756 0016 0A4B     		ldr	r3, .L52
 757 0018 094A     		ldr	r2, .L52
 758 001a 1168     		ldr	r1, [r2]
 759 001c 094A     		ldr	r2, .L52+4
 760 001e 0A40     		and	r2, r2, r1
 761 0020 1A60     		str	r2, [r3]
 603:.\Generated_Source\PSoC4/PWM.c ****     PWM_CONTROL_REG |= mask;
ARM GAS  C:\Users\gagan\AppData\Local\Temp\ccVfL2Av.s 			page 25


 762              		.loc 1 603 0
 763 0022 074B     		ldr	r3, .L52
 764 0024 064A     		ldr	r2, .L52
 765 0026 1168     		ldr	r1, [r2]
 766 0028 7A68     		ldr	r2, [r7, #4]
 767 002a 0A43     		orr	r2, r2, r1
 768 002c 1A60     		str	r2, [r3]
 604:.\Generated_Source\PSoC4/PWM.c **** 
 605:.\Generated_Source\PSoC4/PWM.c ****     CyExitCriticalSection(enableInterrupts);
 769              		.loc 1 605 0
 770 002e 3B1C     		mov	r3, r7
 771 0030 0F33     		add	r3, r3, #15
 772 0032 1B78     		ldrb	r3, [r3]
 773 0034 181C     		mov	r0, r3
 774 0036 FFF7FEFF 		bl	CyExitCriticalSection
 606:.\Generated_Source\PSoC4/PWM.c **** }
 775              		.loc 1 606 0
 776 003a BD46     		mov	sp, r7
 777 003c 04B0     		add	sp, sp, #16
 778              		@ sp needed for prologue
 779 003e 80BD     		pop	{r7, pc}
 780              	.L53:
 781              		.align	2
 782              	.L52:
 783 0040 00010540 		.word	1074069760
 784 0044 FFFFCFFF 		.word	-3145729
 785              		.cfi_endproc
 786              	.LFE12:
 787              		.size	PWM_SetPWMInvert, .-PWM_SetPWMInvert
 788              		.section	.text.PWM_WriteCounter,"ax",%progbits
 789              		.align	2
 790              		.global	PWM_WriteCounter
 791              		.code	16
 792              		.thumb_func
 793              		.type	PWM_WriteCounter, %function
 794              	PWM_WriteCounter:
 795              	.LFB13:
 607:.\Generated_Source\PSoC4/PWM.c **** 
 608:.\Generated_Source\PSoC4/PWM.c **** 
 609:.\Generated_Source\PSoC4/PWM.c **** 
 610:.\Generated_Source\PSoC4/PWM.c **** /*******************************************************************************
 611:.\Generated_Source\PSoC4/PWM.c **** * Function Name: PWM_WriteCounter
 612:.\Generated_Source\PSoC4/PWM.c **** ********************************************************************************
 613:.\Generated_Source\PSoC4/PWM.c **** *
 614:.\Generated_Source\PSoC4/PWM.c **** * Summary:
 615:.\Generated_Source\PSoC4/PWM.c **** *  Writes a new 16bit counter value directly into the counter register, thus
 616:.\Generated_Source\PSoC4/PWM.c **** *  setting the counter (not the period) to the value written. It is not
 617:.\Generated_Source\PSoC4/PWM.c **** *  advised to write to this field when the counter is running.
 618:.\Generated_Source\PSoC4/PWM.c **** *
 619:.\Generated_Source\PSoC4/PWM.c **** * Parameters:
 620:.\Generated_Source\PSoC4/PWM.c **** *  count: value to write
 621:.\Generated_Source\PSoC4/PWM.c **** *
 622:.\Generated_Source\PSoC4/PWM.c **** * Return:
 623:.\Generated_Source\PSoC4/PWM.c **** *  None
 624:.\Generated_Source\PSoC4/PWM.c **** *
 625:.\Generated_Source\PSoC4/PWM.c **** *******************************************************************************/
 626:.\Generated_Source\PSoC4/PWM.c **** void PWM_WriteCounter(uint32 count)
ARM GAS  C:\Users\gagan\AppData\Local\Temp\ccVfL2Av.s 			page 26


 627:.\Generated_Source\PSoC4/PWM.c **** {
 796              		.loc 1 627 0
 797              		.cfi_startproc
 798 0000 80B5     		push	{r7, lr}
 799              	.LCFI37:
 800              		.cfi_def_cfa_offset 8
 801              		.cfi_offset 7, -8
 802              		.cfi_offset 14, -4
 803 0002 82B0     		sub	sp, sp, #8
 804              	.LCFI38:
 805              		.cfi_def_cfa_offset 16
 806 0004 00AF     		add	r7, sp, #0
 807              	.LCFI39:
 808              		.cfi_def_cfa_register 7
 809 0006 7860     		str	r0, [r7, #4]
 628:.\Generated_Source\PSoC4/PWM.c ****     PWM_COUNTER_REG = (count & PWM_16BIT_MASK);
 810              		.loc 1 628 0
 811 0008 034B     		ldr	r3, .L56
 812 000a 7A68     		ldr	r2, [r7, #4]
 813 000c 1204     		lsl	r2, r2, #16
 814 000e 120C     		lsr	r2, r2, #16
 815 0010 1A60     		str	r2, [r3]
 629:.\Generated_Source\PSoC4/PWM.c **** }
 816              		.loc 1 629 0
 817 0012 BD46     		mov	sp, r7
 818 0014 02B0     		add	sp, sp, #8
 819              		@ sp needed for prologue
 820 0016 80BD     		pop	{r7, pc}
 821              	.L57:
 822              		.align	2
 823              	.L56:
 824 0018 08010540 		.word	1074069768
 825              		.cfi_endproc
 826              	.LFE13:
 827              		.size	PWM_WriteCounter, .-PWM_WriteCounter
 828              		.section	.text.PWM_ReadCounter,"ax",%progbits
 829              		.align	2
 830              		.global	PWM_ReadCounter
 831              		.code	16
 832              		.thumb_func
 833              		.type	PWM_ReadCounter, %function
 834              	PWM_ReadCounter:
 835              	.LFB14:
 630:.\Generated_Source\PSoC4/PWM.c **** 
 631:.\Generated_Source\PSoC4/PWM.c **** 
 632:.\Generated_Source\PSoC4/PWM.c **** /*******************************************************************************
 633:.\Generated_Source\PSoC4/PWM.c **** * Function Name: PWM_ReadCounter
 634:.\Generated_Source\PSoC4/PWM.c **** ********************************************************************************
 635:.\Generated_Source\PSoC4/PWM.c **** *
 636:.\Generated_Source\PSoC4/PWM.c **** * Summary:
 637:.\Generated_Source\PSoC4/PWM.c **** *  Reads the current counter value.
 638:.\Generated_Source\PSoC4/PWM.c **** *
 639:.\Generated_Source\PSoC4/PWM.c **** * Parameters:
 640:.\Generated_Source\PSoC4/PWM.c **** *  None
 641:.\Generated_Source\PSoC4/PWM.c **** *
 642:.\Generated_Source\PSoC4/PWM.c **** * Return:
 643:.\Generated_Source\PSoC4/PWM.c **** *  Current counter value
ARM GAS  C:\Users\gagan\AppData\Local\Temp\ccVfL2Av.s 			page 27


 644:.\Generated_Source\PSoC4/PWM.c **** *
 645:.\Generated_Source\PSoC4/PWM.c **** *******************************************************************************/
 646:.\Generated_Source\PSoC4/PWM.c **** uint32 PWM_ReadCounter(void)
 647:.\Generated_Source\PSoC4/PWM.c **** {
 836              		.loc 1 647 0
 837              		.cfi_startproc
 838 0000 80B5     		push	{r7, lr}
 839              	.LCFI40:
 840              		.cfi_def_cfa_offset 8
 841              		.cfi_offset 7, -8
 842              		.cfi_offset 14, -4
 843 0002 00AF     		add	r7, sp, #0
 844              	.LCFI41:
 845              		.cfi_def_cfa_register 7
 648:.\Generated_Source\PSoC4/PWM.c ****     return (PWM_COUNTER_REG & PWM_16BIT_MASK);
 846              		.loc 1 648 0
 847 0004 034B     		ldr	r3, .L60
 848 0006 1B68     		ldr	r3, [r3]
 849 0008 1B04     		lsl	r3, r3, #16
 850 000a 1B0C     		lsr	r3, r3, #16
 649:.\Generated_Source\PSoC4/PWM.c **** }
 851              		.loc 1 649 0
 852 000c 181C     		mov	r0, r3
 853 000e BD46     		mov	sp, r7
 854              		@ sp needed for prologue
 855 0010 80BD     		pop	{r7, pc}
 856              	.L61:
 857 0012 C046     		.align	2
 858              	.L60:
 859 0014 08010540 		.word	1074069768
 860              		.cfi_endproc
 861              	.LFE14:
 862              		.size	PWM_ReadCounter, .-PWM_ReadCounter
 863              		.section	.text.PWM_SetCounterMode,"ax",%progbits
 864              		.align	2
 865              		.global	PWM_SetCounterMode
 866              		.code	16
 867              		.thumb_func
 868              		.type	PWM_SetCounterMode, %function
 869              	PWM_SetCounterMode:
 870              	.LFB15:
 650:.\Generated_Source\PSoC4/PWM.c **** 
 651:.\Generated_Source\PSoC4/PWM.c **** 
 652:.\Generated_Source\PSoC4/PWM.c **** /*******************************************************************************
 653:.\Generated_Source\PSoC4/PWM.c **** * Function Name: PWM_SetCounterMode
 654:.\Generated_Source\PSoC4/PWM.c **** ********************************************************************************
 655:.\Generated_Source\PSoC4/PWM.c **** *
 656:.\Generated_Source\PSoC4/PWM.c **** * Summary:
 657:.\Generated_Source\PSoC4/PWM.c **** *  Sets the counter mode.  Applicable to all modes except Quadrature Decoder
 658:.\Generated_Source\PSoC4/PWM.c **** *  and PWM with pseudo random output.
 659:.\Generated_Source\PSoC4/PWM.c **** *
 660:.\Generated_Source\PSoC4/PWM.c **** * Parameters:
 661:.\Generated_Source\PSoC4/PWM.c **** *  counterMode: Enumerated couner type values
 662:.\Generated_Source\PSoC4/PWM.c **** *   Values:
 663:.\Generated_Source\PSoC4/PWM.c **** *     - PWM_COUNT_UP       - Counts up
 664:.\Generated_Source\PSoC4/PWM.c **** *     - PWM_COUNT_DOWN     - Counts down
 665:.\Generated_Source\PSoC4/PWM.c **** *     - PWM_COUNT_UPDOWN0  - Counts up and down. Terminal count
ARM GAS  C:\Users\gagan\AppData\Local\Temp\ccVfL2Av.s 			page 28


 666:.\Generated_Source\PSoC4/PWM.c **** *                                         generated when counter reaches 0
 667:.\Generated_Source\PSoC4/PWM.c **** *     - PWM_COUNT_UPDOWN1  - Counts up and down. Terminal count
 668:.\Generated_Source\PSoC4/PWM.c **** *                                         generated both when counter reaches 0
 669:.\Generated_Source\PSoC4/PWM.c **** *                                         and period
 670:.\Generated_Source\PSoC4/PWM.c **** *
 671:.\Generated_Source\PSoC4/PWM.c **** * Return:
 672:.\Generated_Source\PSoC4/PWM.c **** *  None
 673:.\Generated_Source\PSoC4/PWM.c **** *
 674:.\Generated_Source\PSoC4/PWM.c **** *******************************************************************************/
 675:.\Generated_Source\PSoC4/PWM.c **** void PWM_SetCounterMode(uint32 counterMode)
 676:.\Generated_Source\PSoC4/PWM.c **** {
 871              		.loc 1 676 0
 872              		.cfi_startproc
 873 0000 80B5     		push	{r7, lr}
 874              	.LCFI42:
 875              		.cfi_def_cfa_offset 8
 876              		.cfi_offset 7, -8
 877              		.cfi_offset 14, -4
 878 0002 84B0     		sub	sp, sp, #16
 879              	.LCFI43:
 880              		.cfi_def_cfa_offset 24
 881 0004 00AF     		add	r7, sp, #0
 882              	.LCFI44:
 883              		.cfi_def_cfa_register 7
 884 0006 7860     		str	r0, [r7, #4]
 677:.\Generated_Source\PSoC4/PWM.c ****     uint8 enableInterrupts;
 678:.\Generated_Source\PSoC4/PWM.c **** 
 679:.\Generated_Source\PSoC4/PWM.c ****     enableInterrupts = CyEnterCriticalSection();
 885              		.loc 1 679 0
 886 0008 FFF7FEFF 		bl	CyEnterCriticalSection
 887 000c 031C     		mov	r3, r0
 888 000e 1A1C     		mov	r2, r3
 889 0010 3B1C     		mov	r3, r7
 890 0012 0F33     		add	r3, r3, #15
 891 0014 1A70     		strb	r2, [r3]
 680:.\Generated_Source\PSoC4/PWM.c **** 
 681:.\Generated_Source\PSoC4/PWM.c ****     PWM_CONTROL_REG &= (uint32)~PWM_UPDOWN_MASK;
 892              		.loc 1 681 0
 893 0016 0A4B     		ldr	r3, .L64
 894 0018 094A     		ldr	r2, .L64
 895 001a 1168     		ldr	r1, [r2]
 896 001c 094A     		ldr	r2, .L64+4
 897 001e 0A40     		and	r2, r2, r1
 898 0020 1A60     		str	r2, [r3]
 682:.\Generated_Source\PSoC4/PWM.c ****     PWM_CONTROL_REG |= counterMode;
 899              		.loc 1 682 0
 900 0022 074B     		ldr	r3, .L64
 901 0024 064A     		ldr	r2, .L64
 902 0026 1168     		ldr	r1, [r2]
 903 0028 7A68     		ldr	r2, [r7, #4]
 904 002a 0A43     		orr	r2, r2, r1
 905 002c 1A60     		str	r2, [r3]
 683:.\Generated_Source\PSoC4/PWM.c **** 
 684:.\Generated_Source\PSoC4/PWM.c ****     CyExitCriticalSection(enableInterrupts);
 906              		.loc 1 684 0
 907 002e 3B1C     		mov	r3, r7
 908 0030 0F33     		add	r3, r3, #15
ARM GAS  C:\Users\gagan\AppData\Local\Temp\ccVfL2Av.s 			page 29


 909 0032 1B78     		ldrb	r3, [r3]
 910 0034 181C     		mov	r0, r3
 911 0036 FFF7FEFF 		bl	CyExitCriticalSection
 685:.\Generated_Source\PSoC4/PWM.c **** }
 912              		.loc 1 685 0
 913 003a BD46     		mov	sp, r7
 914 003c 04B0     		add	sp, sp, #16
 915              		@ sp needed for prologue
 916 003e 80BD     		pop	{r7, pc}
 917              	.L65:
 918              		.align	2
 919              	.L64:
 920 0040 00010540 		.word	1074069760
 921 0044 FFFFFCFF 		.word	-196609
 922              		.cfi_endproc
 923              	.LFE15:
 924              		.size	PWM_SetCounterMode, .-PWM_SetCounterMode
 925              		.section	.text.PWM_WritePeriod,"ax",%progbits
 926              		.align	2
 927              		.global	PWM_WritePeriod
 928              		.code	16
 929              		.thumb_func
 930              		.type	PWM_WritePeriod, %function
 931              	PWM_WritePeriod:
 932              	.LFB16:
 686:.\Generated_Source\PSoC4/PWM.c **** 
 687:.\Generated_Source\PSoC4/PWM.c **** 
 688:.\Generated_Source\PSoC4/PWM.c **** /*******************************************************************************
 689:.\Generated_Source\PSoC4/PWM.c **** * Function Name: PWM_WritePeriod
 690:.\Generated_Source\PSoC4/PWM.c **** ********************************************************************************
 691:.\Generated_Source\PSoC4/PWM.c **** *
 692:.\Generated_Source\PSoC4/PWM.c **** * Summary:
 693:.\Generated_Source\PSoC4/PWM.c **** *  Writes the 16 bit period register with the new period value.
 694:.\Generated_Source\PSoC4/PWM.c **** *  To cause the counter to count for N cycles this register should be written
 695:.\Generated_Source\PSoC4/PWM.c **** *  with N-1 (counts from 0 to period inclusive).
 696:.\Generated_Source\PSoC4/PWM.c **** *
 697:.\Generated_Source\PSoC4/PWM.c **** * Parameters:
 698:.\Generated_Source\PSoC4/PWM.c **** *  period: Period value
 699:.\Generated_Source\PSoC4/PWM.c **** *
 700:.\Generated_Source\PSoC4/PWM.c **** * Return:
 701:.\Generated_Source\PSoC4/PWM.c **** *  None
 702:.\Generated_Source\PSoC4/PWM.c **** *
 703:.\Generated_Source\PSoC4/PWM.c **** *******************************************************************************/
 704:.\Generated_Source\PSoC4/PWM.c **** void PWM_WritePeriod(uint32 period)
 705:.\Generated_Source\PSoC4/PWM.c **** {
 933              		.loc 1 705 0
 934              		.cfi_startproc
 935 0000 80B5     		push	{r7, lr}
 936              	.LCFI45:
 937              		.cfi_def_cfa_offset 8
 938              		.cfi_offset 7, -8
 939              		.cfi_offset 14, -4
 940 0002 82B0     		sub	sp, sp, #8
 941              	.LCFI46:
 942              		.cfi_def_cfa_offset 16
 943 0004 00AF     		add	r7, sp, #0
 944              	.LCFI47:
ARM GAS  C:\Users\gagan\AppData\Local\Temp\ccVfL2Av.s 			page 30


 945              		.cfi_def_cfa_register 7
 946 0006 7860     		str	r0, [r7, #4]
 706:.\Generated_Source\PSoC4/PWM.c ****     PWM_PERIOD_REG = (period & PWM_16BIT_MASK);
 947              		.loc 1 706 0
 948 0008 034B     		ldr	r3, .L68
 949 000a 7A68     		ldr	r2, [r7, #4]
 950 000c 1204     		lsl	r2, r2, #16
 951 000e 120C     		lsr	r2, r2, #16
 952 0010 1A60     		str	r2, [r3]
 707:.\Generated_Source\PSoC4/PWM.c **** }
 953              		.loc 1 707 0
 954 0012 BD46     		mov	sp, r7
 955 0014 02B0     		add	sp, sp, #8
 956              		@ sp needed for prologue
 957 0016 80BD     		pop	{r7, pc}
 958              	.L69:
 959              		.align	2
 960              	.L68:
 961 0018 14010540 		.word	1074069780
 962              		.cfi_endproc
 963              	.LFE16:
 964              		.size	PWM_WritePeriod, .-PWM_WritePeriod
 965              		.section	.text.PWM_ReadPeriod,"ax",%progbits
 966              		.align	2
 967              		.global	PWM_ReadPeriod
 968              		.code	16
 969              		.thumb_func
 970              		.type	PWM_ReadPeriod, %function
 971              	PWM_ReadPeriod:
 972              	.LFB17:
 708:.\Generated_Source\PSoC4/PWM.c **** 
 709:.\Generated_Source\PSoC4/PWM.c **** 
 710:.\Generated_Source\PSoC4/PWM.c **** /*******************************************************************************
 711:.\Generated_Source\PSoC4/PWM.c **** * Function Name: PWM_ReadPeriod
 712:.\Generated_Source\PSoC4/PWM.c **** ********************************************************************************
 713:.\Generated_Source\PSoC4/PWM.c **** *
 714:.\Generated_Source\PSoC4/PWM.c **** * Summary:
 715:.\Generated_Source\PSoC4/PWM.c **** *  Reads the 16 bit period register.
 716:.\Generated_Source\PSoC4/PWM.c **** *
 717:.\Generated_Source\PSoC4/PWM.c **** * Parameters:
 718:.\Generated_Source\PSoC4/PWM.c **** *  None
 719:.\Generated_Source\PSoC4/PWM.c **** *
 720:.\Generated_Source\PSoC4/PWM.c **** * Return:
 721:.\Generated_Source\PSoC4/PWM.c **** *  Period value
 722:.\Generated_Source\PSoC4/PWM.c **** *
 723:.\Generated_Source\PSoC4/PWM.c **** *******************************************************************************/
 724:.\Generated_Source\PSoC4/PWM.c **** uint32 PWM_ReadPeriod(void)
 725:.\Generated_Source\PSoC4/PWM.c **** {
 973              		.loc 1 725 0
 974              		.cfi_startproc
 975 0000 80B5     		push	{r7, lr}
 976              	.LCFI48:
 977              		.cfi_def_cfa_offset 8
 978              		.cfi_offset 7, -8
 979              		.cfi_offset 14, -4
 980 0002 00AF     		add	r7, sp, #0
 981              	.LCFI49:
ARM GAS  C:\Users\gagan\AppData\Local\Temp\ccVfL2Av.s 			page 31


 982              		.cfi_def_cfa_register 7
 726:.\Generated_Source\PSoC4/PWM.c ****     return (PWM_PERIOD_REG & PWM_16BIT_MASK);
 983              		.loc 1 726 0
 984 0004 034B     		ldr	r3, .L72
 985 0006 1B68     		ldr	r3, [r3]
 986 0008 1B04     		lsl	r3, r3, #16
 987 000a 1B0C     		lsr	r3, r3, #16
 727:.\Generated_Source\PSoC4/PWM.c **** }
 988              		.loc 1 727 0
 989 000c 181C     		mov	r0, r3
 990 000e BD46     		mov	sp, r7
 991              		@ sp needed for prologue
 992 0010 80BD     		pop	{r7, pc}
 993              	.L73:
 994 0012 C046     		.align	2
 995              	.L72:
 996 0014 14010540 		.word	1074069780
 997              		.cfi_endproc
 998              	.LFE17:
 999              		.size	PWM_ReadPeriod, .-PWM_ReadPeriod
 1000              		.section	.text.PWM_SetCompareSwap,"ax",%progbits
 1001              		.align	2
 1002              		.global	PWM_SetCompareSwap
 1003              		.code	16
 1004              		.thumb_func
 1005              		.type	PWM_SetCompareSwap, %function
 1006              	PWM_SetCompareSwap:
 1007              	.LFB18:
 728:.\Generated_Source\PSoC4/PWM.c **** 
 729:.\Generated_Source\PSoC4/PWM.c **** 
 730:.\Generated_Source\PSoC4/PWM.c **** /*******************************************************************************
 731:.\Generated_Source\PSoC4/PWM.c **** * Function Name: PWM_SetCompareSwap
 732:.\Generated_Source\PSoC4/PWM.c **** ********************************************************************************
 733:.\Generated_Source\PSoC4/PWM.c **** *
 734:.\Generated_Source\PSoC4/PWM.c **** * Summary:
 735:.\Generated_Source\PSoC4/PWM.c **** *  Writes the register that controls whether the compare registers are
 736:.\Generated_Source\PSoC4/PWM.c **** *  swapped. When enabled in Timer/Counter mode(without capture) the swap occurs
 737:.\Generated_Source\PSoC4/PWM.c **** *  at a TC event. In PWM mode the swap occurs at the next TC event following
 738:.\Generated_Source\PSoC4/PWM.c **** *  a hardware switch event.
 739:.\Generated_Source\PSoC4/PWM.c **** *
 740:.\Generated_Source\PSoC4/PWM.c **** * Parameters:
 741:.\Generated_Source\PSoC4/PWM.c **** *  swapEnable
 742:.\Generated_Source\PSoC4/PWM.c **** *   Values:
 743:.\Generated_Source\PSoC4/PWM.c **** *     - 0 - Disable swap
 744:.\Generated_Source\PSoC4/PWM.c **** *     - 1 - Enable swap
 745:.\Generated_Source\PSoC4/PWM.c **** *
 746:.\Generated_Source\PSoC4/PWM.c **** * Return:
 747:.\Generated_Source\PSoC4/PWM.c **** *  None
 748:.\Generated_Source\PSoC4/PWM.c **** *
 749:.\Generated_Source\PSoC4/PWM.c **** *******************************************************************************/
 750:.\Generated_Source\PSoC4/PWM.c **** void PWM_SetCompareSwap(uint32 swapEnable)
 751:.\Generated_Source\PSoC4/PWM.c **** {
 1008              		.loc 1 751 0
 1009              		.cfi_startproc
 1010 0000 80B5     		push	{r7, lr}
 1011              	.LCFI50:
 1012              		.cfi_def_cfa_offset 8
ARM GAS  C:\Users\gagan\AppData\Local\Temp\ccVfL2Av.s 			page 32


 1013              		.cfi_offset 7, -8
 1014              		.cfi_offset 14, -4
 1015 0002 84B0     		sub	sp, sp, #16
 1016              	.LCFI51:
 1017              		.cfi_def_cfa_offset 24
 1018 0004 00AF     		add	r7, sp, #0
 1019              	.LCFI52:
 1020              		.cfi_def_cfa_register 7
 1021 0006 7860     		str	r0, [r7, #4]
 752:.\Generated_Source\PSoC4/PWM.c ****     uint8 enableInterrupts;
 753:.\Generated_Source\PSoC4/PWM.c **** 
 754:.\Generated_Source\PSoC4/PWM.c ****     enableInterrupts = CyEnterCriticalSection();
 1022              		.loc 1 754 0
 1023 0008 FFF7FEFF 		bl	CyEnterCriticalSection
 1024 000c 031C     		mov	r3, r0
 1025 000e 1A1C     		mov	r2, r3
 1026 0010 3B1C     		mov	r3, r7
 1027 0012 0F33     		add	r3, r3, #15
 1028 0014 1A70     		strb	r2, [r3]
 755:.\Generated_Source\PSoC4/PWM.c **** 
 756:.\Generated_Source\PSoC4/PWM.c ****     PWM_CONTROL_REG &= (uint32)~PWM_RELOAD_CC_MASK;
 1029              		.loc 1 756 0
 1030 0016 0B4B     		ldr	r3, .L76
 1031 0018 0A4A     		ldr	r2, .L76
 1032 001a 1268     		ldr	r2, [r2]
 1033 001c 0121     		mov	r1, #1
 1034 001e 8A43     		bic	r2, r2, r1
 1035 0020 1A60     		str	r2, [r3]
 757:.\Generated_Source\PSoC4/PWM.c ****     PWM_CONTROL_REG |= (swapEnable & PWM_1BIT_MASK);
 1036              		.loc 1 757 0
 1037 0022 084B     		ldr	r3, .L76
 1038 0024 074A     		ldr	r2, .L76
 1039 0026 1168     		ldr	r1, [r2]
 1040 0028 7868     		ldr	r0, [r7, #4]
 1041 002a 0122     		mov	r2, #1
 1042 002c 0240     		and	r2, r2, r0
 1043 002e 0A43     		orr	r2, r2, r1
 1044 0030 1A60     		str	r2, [r3]
 758:.\Generated_Source\PSoC4/PWM.c **** 
 759:.\Generated_Source\PSoC4/PWM.c ****     CyExitCriticalSection(enableInterrupts);
 1045              		.loc 1 759 0
 1046 0032 3B1C     		mov	r3, r7
 1047 0034 0F33     		add	r3, r3, #15
 1048 0036 1B78     		ldrb	r3, [r3]
 1049 0038 181C     		mov	r0, r3
 1050 003a FFF7FEFF 		bl	CyExitCriticalSection
 760:.\Generated_Source\PSoC4/PWM.c **** }
 1051              		.loc 1 760 0
 1052 003e BD46     		mov	sp, r7
 1053 0040 04B0     		add	sp, sp, #16
 1054              		@ sp needed for prologue
 1055 0042 80BD     		pop	{r7, pc}
 1056              	.L77:
 1057              		.align	2
 1058              	.L76:
 1059 0044 00010540 		.word	1074069760
 1060              		.cfi_endproc
ARM GAS  C:\Users\gagan\AppData\Local\Temp\ccVfL2Av.s 			page 33


 1061              	.LFE18:
 1062              		.size	PWM_SetCompareSwap, .-PWM_SetCompareSwap
 1063              		.section	.text.PWM_WritePeriodBuf,"ax",%progbits
 1064              		.align	2
 1065              		.global	PWM_WritePeriodBuf
 1066              		.code	16
 1067              		.thumb_func
 1068              		.type	PWM_WritePeriodBuf, %function
 1069              	PWM_WritePeriodBuf:
 1070              	.LFB19:
 761:.\Generated_Source\PSoC4/PWM.c **** 
 762:.\Generated_Source\PSoC4/PWM.c **** 
 763:.\Generated_Source\PSoC4/PWM.c **** /*******************************************************************************
 764:.\Generated_Source\PSoC4/PWM.c **** * Function Name: PWM_WritePeriodBuf
 765:.\Generated_Source\PSoC4/PWM.c **** ********************************************************************************
 766:.\Generated_Source\PSoC4/PWM.c **** *
 767:.\Generated_Source\PSoC4/PWM.c **** * Summary:
 768:.\Generated_Source\PSoC4/PWM.c **** *  Writes the 16 bit period buf register with the new period value.
 769:.\Generated_Source\PSoC4/PWM.c **** *
 770:.\Generated_Source\PSoC4/PWM.c **** * Parameters:
 771:.\Generated_Source\PSoC4/PWM.c **** *  periodBuf: Period value
 772:.\Generated_Source\PSoC4/PWM.c **** *
 773:.\Generated_Source\PSoC4/PWM.c **** * Return:
 774:.\Generated_Source\PSoC4/PWM.c **** *  None
 775:.\Generated_Source\PSoC4/PWM.c **** *
 776:.\Generated_Source\PSoC4/PWM.c **** *******************************************************************************/
 777:.\Generated_Source\PSoC4/PWM.c **** void PWM_WritePeriodBuf(uint32 periodBuf)
 778:.\Generated_Source\PSoC4/PWM.c **** {
 1071              		.loc 1 778 0
 1072              		.cfi_startproc
 1073 0000 80B5     		push	{r7, lr}
 1074              	.LCFI53:
 1075              		.cfi_def_cfa_offset 8
 1076              		.cfi_offset 7, -8
 1077              		.cfi_offset 14, -4
 1078 0002 82B0     		sub	sp, sp, #8
 1079              	.LCFI54:
 1080              		.cfi_def_cfa_offset 16
 1081 0004 00AF     		add	r7, sp, #0
 1082              	.LCFI55:
 1083              		.cfi_def_cfa_register 7
 1084 0006 7860     		str	r0, [r7, #4]
 779:.\Generated_Source\PSoC4/PWM.c ****     PWM_PERIOD_BUF_REG = (periodBuf & PWM_16BIT_MASK);
 1085              		.loc 1 779 0
 1086 0008 034B     		ldr	r3, .L80
 1087 000a 7A68     		ldr	r2, [r7, #4]
 1088 000c 1204     		lsl	r2, r2, #16
 1089 000e 120C     		lsr	r2, r2, #16
 1090 0010 1A60     		str	r2, [r3]
 780:.\Generated_Source\PSoC4/PWM.c **** }
 1091              		.loc 1 780 0
 1092 0012 BD46     		mov	sp, r7
 1093 0014 02B0     		add	sp, sp, #8
 1094              		@ sp needed for prologue
 1095 0016 80BD     		pop	{r7, pc}
 1096              	.L81:
 1097              		.align	2
ARM GAS  C:\Users\gagan\AppData\Local\Temp\ccVfL2Av.s 			page 34


 1098              	.L80:
 1099 0018 18010540 		.word	1074069784
 1100              		.cfi_endproc
 1101              	.LFE19:
 1102              		.size	PWM_WritePeriodBuf, .-PWM_WritePeriodBuf
 1103              		.section	.text.PWM_ReadPeriodBuf,"ax",%progbits
 1104              		.align	2
 1105              		.global	PWM_ReadPeriodBuf
 1106              		.code	16
 1107              		.thumb_func
 1108              		.type	PWM_ReadPeriodBuf, %function
 1109              	PWM_ReadPeriodBuf:
 1110              	.LFB20:
 781:.\Generated_Source\PSoC4/PWM.c **** 
 782:.\Generated_Source\PSoC4/PWM.c **** 
 783:.\Generated_Source\PSoC4/PWM.c **** /*******************************************************************************
 784:.\Generated_Source\PSoC4/PWM.c **** * Function Name: PWM_ReadPeriodBuf
 785:.\Generated_Source\PSoC4/PWM.c **** ********************************************************************************
 786:.\Generated_Source\PSoC4/PWM.c **** *
 787:.\Generated_Source\PSoC4/PWM.c **** * Summary:
 788:.\Generated_Source\PSoC4/PWM.c **** *  Reads the 16 bit period buf register.
 789:.\Generated_Source\PSoC4/PWM.c **** *
 790:.\Generated_Source\PSoC4/PWM.c **** * Parameters:
 791:.\Generated_Source\PSoC4/PWM.c **** *  None
 792:.\Generated_Source\PSoC4/PWM.c **** *
 793:.\Generated_Source\PSoC4/PWM.c **** * Return:
 794:.\Generated_Source\PSoC4/PWM.c **** *  Period value
 795:.\Generated_Source\PSoC4/PWM.c **** *
 796:.\Generated_Source\PSoC4/PWM.c **** *******************************************************************************/
 797:.\Generated_Source\PSoC4/PWM.c **** uint32 PWM_ReadPeriodBuf(void)
 798:.\Generated_Source\PSoC4/PWM.c **** {
 1111              		.loc 1 798 0
 1112              		.cfi_startproc
 1113 0000 80B5     		push	{r7, lr}
 1114              	.LCFI56:
 1115              		.cfi_def_cfa_offset 8
 1116              		.cfi_offset 7, -8
 1117              		.cfi_offset 14, -4
 1118 0002 00AF     		add	r7, sp, #0
 1119              	.LCFI57:
 1120              		.cfi_def_cfa_register 7
 799:.\Generated_Source\PSoC4/PWM.c ****     return (PWM_PERIOD_BUF_REG & PWM_16BIT_MASK);
 1121              		.loc 1 799 0
 1122 0004 034B     		ldr	r3, .L84
 1123 0006 1B68     		ldr	r3, [r3]
 1124 0008 1B04     		lsl	r3, r3, #16
 1125 000a 1B0C     		lsr	r3, r3, #16
 800:.\Generated_Source\PSoC4/PWM.c **** }
 1126              		.loc 1 800 0
 1127 000c 181C     		mov	r0, r3
 1128 000e BD46     		mov	sp, r7
 1129              		@ sp needed for prologue
 1130 0010 80BD     		pop	{r7, pc}
 1131              	.L85:
 1132 0012 C046     		.align	2
 1133              	.L84:
 1134 0014 18010540 		.word	1074069784
ARM GAS  C:\Users\gagan\AppData\Local\Temp\ccVfL2Av.s 			page 35


 1135              		.cfi_endproc
 1136              	.LFE20:
 1137              		.size	PWM_ReadPeriodBuf, .-PWM_ReadPeriodBuf
 1138              		.section	.text.PWM_SetPeriodSwap,"ax",%progbits
 1139              		.align	2
 1140              		.global	PWM_SetPeriodSwap
 1141              		.code	16
 1142              		.thumb_func
 1143              		.type	PWM_SetPeriodSwap, %function
 1144              	PWM_SetPeriodSwap:
 1145              	.LFB21:
 801:.\Generated_Source\PSoC4/PWM.c **** 
 802:.\Generated_Source\PSoC4/PWM.c **** 
 803:.\Generated_Source\PSoC4/PWM.c **** /*******************************************************************************
 804:.\Generated_Source\PSoC4/PWM.c **** * Function Name: PWM_SetPeriodSwap
 805:.\Generated_Source\PSoC4/PWM.c **** ********************************************************************************
 806:.\Generated_Source\PSoC4/PWM.c **** *
 807:.\Generated_Source\PSoC4/PWM.c **** * Summary:
 808:.\Generated_Source\PSoC4/PWM.c **** *  Writes the register that controls whether the period registers are
 809:.\Generated_Source\PSoC4/PWM.c **** *  swapped. When enabled in Timer/Counter mode the swap occurs at a TC event.
 810:.\Generated_Source\PSoC4/PWM.c **** *  In PWM mode the swap occurs at the next TC event following a hardware switch
 811:.\Generated_Source\PSoC4/PWM.c **** *  event.
 812:.\Generated_Source\PSoC4/PWM.c **** *
 813:.\Generated_Source\PSoC4/PWM.c **** * Parameters:
 814:.\Generated_Source\PSoC4/PWM.c **** *  swapEnable
 815:.\Generated_Source\PSoC4/PWM.c **** *   Values:
 816:.\Generated_Source\PSoC4/PWM.c **** *     - 0 - Disable swap
 817:.\Generated_Source\PSoC4/PWM.c **** *     - 1 - Enable swap
 818:.\Generated_Source\PSoC4/PWM.c **** *
 819:.\Generated_Source\PSoC4/PWM.c **** * Return:
 820:.\Generated_Source\PSoC4/PWM.c **** *  None
 821:.\Generated_Source\PSoC4/PWM.c **** *
 822:.\Generated_Source\PSoC4/PWM.c **** *******************************************************************************/
 823:.\Generated_Source\PSoC4/PWM.c **** void PWM_SetPeriodSwap(uint32 swapEnable)
 824:.\Generated_Source\PSoC4/PWM.c **** {
 1146              		.loc 1 824 0
 1147              		.cfi_startproc
 1148 0000 80B5     		push	{r7, lr}
 1149              	.LCFI58:
 1150              		.cfi_def_cfa_offset 8
 1151              		.cfi_offset 7, -8
 1152              		.cfi_offset 14, -4
 1153 0002 84B0     		sub	sp, sp, #16
 1154              	.LCFI59:
 1155              		.cfi_def_cfa_offset 24
 1156 0004 00AF     		add	r7, sp, #0
 1157              	.LCFI60:
 1158              		.cfi_def_cfa_register 7
 1159 0006 7860     		str	r0, [r7, #4]
 825:.\Generated_Source\PSoC4/PWM.c ****     uint8 enableInterrupts;
 826:.\Generated_Source\PSoC4/PWM.c **** 
 827:.\Generated_Source\PSoC4/PWM.c ****     enableInterrupts = CyEnterCriticalSection();
 1160              		.loc 1 827 0
 1161 0008 FFF7FEFF 		bl	CyEnterCriticalSection
 1162 000c 031C     		mov	r3, r0
 1163 000e 1A1C     		mov	r2, r3
 1164 0010 3B1C     		mov	r3, r7
ARM GAS  C:\Users\gagan\AppData\Local\Temp\ccVfL2Av.s 			page 36


 1165 0012 0F33     		add	r3, r3, #15
 1166 0014 1A70     		strb	r2, [r3]
 828:.\Generated_Source\PSoC4/PWM.c **** 
 829:.\Generated_Source\PSoC4/PWM.c ****     PWM_CONTROL_REG &= (uint32)~PWM_RELOAD_PERIOD_MASK;
 1167              		.loc 1 829 0
 1168 0016 0C4B     		ldr	r3, .L88
 1169 0018 0B4A     		ldr	r2, .L88
 1170 001a 1268     		ldr	r2, [r2]
 1171 001c 0221     		mov	r1, #2
 1172 001e 8A43     		bic	r2, r2, r1
 1173 0020 1A60     		str	r2, [r3]
 830:.\Generated_Source\PSoC4/PWM.c ****     PWM_CONTROL_REG |= ((uint32)((swapEnable & PWM_1BIT_MASK) <<
 1174              		.loc 1 830 0
 1175 0022 094B     		ldr	r3, .L88
 1176 0024 084A     		ldr	r2, .L88
 1177 0026 1168     		ldr	r1, [r2]
 1178 0028 7868     		ldr	r0, [r7, #4]
 1179 002a 0122     		mov	r2, #1
 1180 002c 0240     		and	r2, r2, r0
 1181 002e 5200     		lsl	r2, r2, #1
 1182 0030 0A43     		orr	r2, r2, r1
 1183 0032 1A60     		str	r2, [r3]
 831:.\Generated_Source\PSoC4/PWM.c ****                                                             PWM_RELOAD_PERIOD_SHIFT));
 832:.\Generated_Source\PSoC4/PWM.c **** 
 833:.\Generated_Source\PSoC4/PWM.c ****     CyExitCriticalSection(enableInterrupts);
 1184              		.loc 1 833 0
 1185 0034 3B1C     		mov	r3, r7
 1186 0036 0F33     		add	r3, r3, #15
 1187 0038 1B78     		ldrb	r3, [r3]
 1188 003a 181C     		mov	r0, r3
 1189 003c FFF7FEFF 		bl	CyExitCriticalSection
 834:.\Generated_Source\PSoC4/PWM.c **** }
 1190              		.loc 1 834 0
 1191 0040 BD46     		mov	sp, r7
 1192 0042 04B0     		add	sp, sp, #16
 1193              		@ sp needed for prologue
 1194 0044 80BD     		pop	{r7, pc}
 1195              	.L89:
 1196 0046 C046     		.align	2
 1197              	.L88:
 1198 0048 00010540 		.word	1074069760
 1199              		.cfi_endproc
 1200              	.LFE21:
 1201              		.size	PWM_SetPeriodSwap, .-PWM_SetPeriodSwap
 1202              		.section	.text.PWM_WriteCompare,"ax",%progbits
 1203              		.align	2
 1204              		.global	PWM_WriteCompare
 1205              		.code	16
 1206              		.thumb_func
 1207              		.type	PWM_WriteCompare, %function
 1208              	PWM_WriteCompare:
 1209              	.LFB22:
 835:.\Generated_Source\PSoC4/PWM.c **** 
 836:.\Generated_Source\PSoC4/PWM.c **** 
 837:.\Generated_Source\PSoC4/PWM.c **** /*******************************************************************************
 838:.\Generated_Source\PSoC4/PWM.c **** * Function Name: PWM_WriteCompare
 839:.\Generated_Source\PSoC4/PWM.c **** ********************************************************************************
ARM GAS  C:\Users\gagan\AppData\Local\Temp\ccVfL2Av.s 			page 37


 840:.\Generated_Source\PSoC4/PWM.c **** *
 841:.\Generated_Source\PSoC4/PWM.c **** * Summary:
 842:.\Generated_Source\PSoC4/PWM.c **** *  Writes the 16 bit compare register with the new compare value. Not
 843:.\Generated_Source\PSoC4/PWM.c **** *  applicable for Timer/Counter with Capture or in Quadrature Decoder modes.
 844:.\Generated_Source\PSoC4/PWM.c **** *
 845:.\Generated_Source\PSoC4/PWM.c **** * Parameters:
 846:.\Generated_Source\PSoC4/PWM.c **** *  compare: Compare value
 847:.\Generated_Source\PSoC4/PWM.c **** *
 848:.\Generated_Source\PSoC4/PWM.c **** * Return:
 849:.\Generated_Source\PSoC4/PWM.c **** *  None
 850:.\Generated_Source\PSoC4/PWM.c **** *
 851:.\Generated_Source\PSoC4/PWM.c **** *******************************************************************************/
 852:.\Generated_Source\PSoC4/PWM.c **** void PWM_WriteCompare(uint32 compare)
 853:.\Generated_Source\PSoC4/PWM.c **** {
 1210              		.loc 1 853 0
 1211              		.cfi_startproc
 1212 0000 80B5     		push	{r7, lr}
 1213              	.LCFI61:
 1214              		.cfi_def_cfa_offset 8
 1215              		.cfi_offset 7, -8
 1216              		.cfi_offset 14, -4
 1217 0002 82B0     		sub	sp, sp, #8
 1218              	.LCFI62:
 1219              		.cfi_def_cfa_offset 16
 1220 0004 00AF     		add	r7, sp, #0
 1221              	.LCFI63:
 1222              		.cfi_def_cfa_register 7
 1223 0006 7860     		str	r0, [r7, #4]
 854:.\Generated_Source\PSoC4/PWM.c ****     PWM_COMP_CAP_REG = (compare & PWM_16BIT_MASK);
 1224              		.loc 1 854 0
 1225 0008 034B     		ldr	r3, .L92
 1226 000a 7A68     		ldr	r2, [r7, #4]
 1227 000c 1204     		lsl	r2, r2, #16
 1228 000e 120C     		lsr	r2, r2, #16
 1229 0010 1A60     		str	r2, [r3]
 855:.\Generated_Source\PSoC4/PWM.c **** }
 1230              		.loc 1 855 0
 1231 0012 BD46     		mov	sp, r7
 1232 0014 02B0     		add	sp, sp, #8
 1233              		@ sp needed for prologue
 1234 0016 80BD     		pop	{r7, pc}
 1235              	.L93:
 1236              		.align	2
 1237              	.L92:
 1238 0018 0C010540 		.word	1074069772
 1239              		.cfi_endproc
 1240              	.LFE22:
 1241              		.size	PWM_WriteCompare, .-PWM_WriteCompare
 1242              		.section	.text.PWM_ReadCompare,"ax",%progbits
 1243              		.align	2
 1244              		.global	PWM_ReadCompare
 1245              		.code	16
 1246              		.thumb_func
 1247              		.type	PWM_ReadCompare, %function
 1248              	PWM_ReadCompare:
 1249              	.LFB23:
 856:.\Generated_Source\PSoC4/PWM.c **** 
ARM GAS  C:\Users\gagan\AppData\Local\Temp\ccVfL2Av.s 			page 38


 857:.\Generated_Source\PSoC4/PWM.c **** 
 858:.\Generated_Source\PSoC4/PWM.c **** /*******************************************************************************
 859:.\Generated_Source\PSoC4/PWM.c **** * Function Name: PWM_ReadCompare
 860:.\Generated_Source\PSoC4/PWM.c **** ********************************************************************************
 861:.\Generated_Source\PSoC4/PWM.c **** *
 862:.\Generated_Source\PSoC4/PWM.c **** * Summary:
 863:.\Generated_Source\PSoC4/PWM.c **** *  Reads the compare register. Not applicable for Timer/Counter with Capture
 864:.\Generated_Source\PSoC4/PWM.c **** *  or in Quadrature Decoder modes.
 865:.\Generated_Source\PSoC4/PWM.c **** *
 866:.\Generated_Source\PSoC4/PWM.c **** * Parameters:
 867:.\Generated_Source\PSoC4/PWM.c **** *  None
 868:.\Generated_Source\PSoC4/PWM.c **** *
 869:.\Generated_Source\PSoC4/PWM.c **** * Return:
 870:.\Generated_Source\PSoC4/PWM.c **** *  Compare value
 871:.\Generated_Source\PSoC4/PWM.c **** *
 872:.\Generated_Source\PSoC4/PWM.c **** *******************************************************************************/
 873:.\Generated_Source\PSoC4/PWM.c **** uint32 PWM_ReadCompare(void)
 874:.\Generated_Source\PSoC4/PWM.c **** {
 1250              		.loc 1 874 0
 1251              		.cfi_startproc
 1252 0000 80B5     		push	{r7, lr}
 1253              	.LCFI64:
 1254              		.cfi_def_cfa_offset 8
 1255              		.cfi_offset 7, -8
 1256              		.cfi_offset 14, -4
 1257 0002 00AF     		add	r7, sp, #0
 1258              	.LCFI65:
 1259              		.cfi_def_cfa_register 7
 875:.\Generated_Source\PSoC4/PWM.c ****     return (PWM_COMP_CAP_REG & PWM_16BIT_MASK);
 1260              		.loc 1 875 0
 1261 0004 034B     		ldr	r3, .L96
 1262 0006 1B68     		ldr	r3, [r3]
 1263 0008 1B04     		lsl	r3, r3, #16
 1264 000a 1B0C     		lsr	r3, r3, #16
 876:.\Generated_Source\PSoC4/PWM.c **** }
 1265              		.loc 1 876 0
 1266 000c 181C     		mov	r0, r3
 1267 000e BD46     		mov	sp, r7
 1268              		@ sp needed for prologue
 1269 0010 80BD     		pop	{r7, pc}
 1270              	.L97:
 1271 0012 C046     		.align	2
 1272              	.L96:
 1273 0014 0C010540 		.word	1074069772
 1274              		.cfi_endproc
 1275              	.LFE23:
 1276              		.size	PWM_ReadCompare, .-PWM_ReadCompare
 1277              		.section	.text.PWM_WriteCompareBuf,"ax",%progbits
 1278              		.align	2
 1279              		.global	PWM_WriteCompareBuf
 1280              		.code	16
 1281              		.thumb_func
 1282              		.type	PWM_WriteCompareBuf, %function
 1283              	PWM_WriteCompareBuf:
 1284              	.LFB24:
 877:.\Generated_Source\PSoC4/PWM.c **** 
 878:.\Generated_Source\PSoC4/PWM.c **** 
ARM GAS  C:\Users\gagan\AppData\Local\Temp\ccVfL2Av.s 			page 39


 879:.\Generated_Source\PSoC4/PWM.c **** /*******************************************************************************
 880:.\Generated_Source\PSoC4/PWM.c **** * Function Name: PWM_WriteCompareBuf
 881:.\Generated_Source\PSoC4/PWM.c **** ********************************************************************************
 882:.\Generated_Source\PSoC4/PWM.c **** *
 883:.\Generated_Source\PSoC4/PWM.c **** * Summary:
 884:.\Generated_Source\PSoC4/PWM.c **** *  Writes the 16 bit compare buffer register with the new compare value. Not
 885:.\Generated_Source\PSoC4/PWM.c **** *  applicable for Timer/Counter with Capture or in Quadrature Decoder modes.
 886:.\Generated_Source\PSoC4/PWM.c **** *
 887:.\Generated_Source\PSoC4/PWM.c **** * Parameters:
 888:.\Generated_Source\PSoC4/PWM.c **** *  compareBuf: Compare value
 889:.\Generated_Source\PSoC4/PWM.c **** *
 890:.\Generated_Source\PSoC4/PWM.c **** * Return:
 891:.\Generated_Source\PSoC4/PWM.c **** *  None
 892:.\Generated_Source\PSoC4/PWM.c **** *
 893:.\Generated_Source\PSoC4/PWM.c **** *******************************************************************************/
 894:.\Generated_Source\PSoC4/PWM.c **** void PWM_WriteCompareBuf(uint32 compareBuf)
 895:.\Generated_Source\PSoC4/PWM.c **** {
 1285              		.loc 1 895 0
 1286              		.cfi_startproc
 1287 0000 80B5     		push	{r7, lr}
 1288              	.LCFI66:
 1289              		.cfi_def_cfa_offset 8
 1290              		.cfi_offset 7, -8
 1291              		.cfi_offset 14, -4
 1292 0002 82B0     		sub	sp, sp, #8
 1293              	.LCFI67:
 1294              		.cfi_def_cfa_offset 16
 1295 0004 00AF     		add	r7, sp, #0
 1296              	.LCFI68:
 1297              		.cfi_def_cfa_register 7
 1298 0006 7860     		str	r0, [r7, #4]
 896:.\Generated_Source\PSoC4/PWM.c ****    PWM_COMP_CAP_BUF_REG = (compareBuf & PWM_16BIT_MASK);
 1299              		.loc 1 896 0
 1300 0008 034B     		ldr	r3, .L100
 1301 000a 7A68     		ldr	r2, [r7, #4]
 1302 000c 1204     		lsl	r2, r2, #16
 1303 000e 120C     		lsr	r2, r2, #16
 1304 0010 1A60     		str	r2, [r3]
 897:.\Generated_Source\PSoC4/PWM.c **** }
 1305              		.loc 1 897 0
 1306 0012 BD46     		mov	sp, r7
 1307 0014 02B0     		add	sp, sp, #8
 1308              		@ sp needed for prologue
 1309 0016 80BD     		pop	{r7, pc}
 1310              	.L101:
 1311              		.align	2
 1312              	.L100:
 1313 0018 10010540 		.word	1074069776
 1314              		.cfi_endproc
 1315              	.LFE24:
 1316              		.size	PWM_WriteCompareBuf, .-PWM_WriteCompareBuf
 1317              		.section	.text.PWM_ReadCompareBuf,"ax",%progbits
 1318              		.align	2
 1319              		.global	PWM_ReadCompareBuf
 1320              		.code	16
 1321              		.thumb_func
 1322              		.type	PWM_ReadCompareBuf, %function
ARM GAS  C:\Users\gagan\AppData\Local\Temp\ccVfL2Av.s 			page 40


 1323              	PWM_ReadCompareBuf:
 1324              	.LFB25:
 898:.\Generated_Source\PSoC4/PWM.c **** 
 899:.\Generated_Source\PSoC4/PWM.c **** 
 900:.\Generated_Source\PSoC4/PWM.c **** /*******************************************************************************
 901:.\Generated_Source\PSoC4/PWM.c **** * Function Name: PWM_ReadCompareBuf
 902:.\Generated_Source\PSoC4/PWM.c **** ********************************************************************************
 903:.\Generated_Source\PSoC4/PWM.c **** *
 904:.\Generated_Source\PSoC4/PWM.c **** * Summary:
 905:.\Generated_Source\PSoC4/PWM.c **** *  Reads the compare buffer register. Not applicable for Timer/Counter with
 906:.\Generated_Source\PSoC4/PWM.c **** *  Capture or in Quadrature Decoder modes.
 907:.\Generated_Source\PSoC4/PWM.c **** *
 908:.\Generated_Source\PSoC4/PWM.c **** * Parameters:
 909:.\Generated_Source\PSoC4/PWM.c **** *  None
 910:.\Generated_Source\PSoC4/PWM.c **** *
 911:.\Generated_Source\PSoC4/PWM.c **** * Return:
 912:.\Generated_Source\PSoC4/PWM.c **** *  Compare buffer value
 913:.\Generated_Source\PSoC4/PWM.c **** *
 914:.\Generated_Source\PSoC4/PWM.c **** *******************************************************************************/
 915:.\Generated_Source\PSoC4/PWM.c **** uint32 PWM_ReadCompareBuf(void)
 916:.\Generated_Source\PSoC4/PWM.c **** {
 1325              		.loc 1 916 0
 1326              		.cfi_startproc
 1327 0000 80B5     		push	{r7, lr}
 1328              	.LCFI69:
 1329              		.cfi_def_cfa_offset 8
 1330              		.cfi_offset 7, -8
 1331              		.cfi_offset 14, -4
 1332 0002 00AF     		add	r7, sp, #0
 1333              	.LCFI70:
 1334              		.cfi_def_cfa_register 7
 917:.\Generated_Source\PSoC4/PWM.c ****     return (PWM_COMP_CAP_BUF_REG & PWM_16BIT_MASK);
 1335              		.loc 1 917 0
 1336 0004 034B     		ldr	r3, .L104
 1337 0006 1B68     		ldr	r3, [r3]
 1338 0008 1B04     		lsl	r3, r3, #16
 1339 000a 1B0C     		lsr	r3, r3, #16
 918:.\Generated_Source\PSoC4/PWM.c **** }
 1340              		.loc 1 918 0
 1341 000c 181C     		mov	r0, r3
 1342 000e BD46     		mov	sp, r7
 1343              		@ sp needed for prologue
 1344 0010 80BD     		pop	{r7, pc}
 1345              	.L105:
 1346 0012 C046     		.align	2
 1347              	.L104:
 1348 0014 10010540 		.word	1074069776
 1349              		.cfi_endproc
 1350              	.LFE25:
 1351              		.size	PWM_ReadCompareBuf, .-PWM_ReadCompareBuf
 1352              		.section	.text.PWM_ReadCapture,"ax",%progbits
 1353              		.align	2
 1354              		.global	PWM_ReadCapture
 1355              		.code	16
 1356              		.thumb_func
 1357              		.type	PWM_ReadCapture, %function
 1358              	PWM_ReadCapture:
ARM GAS  C:\Users\gagan\AppData\Local\Temp\ccVfL2Av.s 			page 41


 1359              	.LFB26:
 919:.\Generated_Source\PSoC4/PWM.c **** 
 920:.\Generated_Source\PSoC4/PWM.c **** 
 921:.\Generated_Source\PSoC4/PWM.c **** /*******************************************************************************
 922:.\Generated_Source\PSoC4/PWM.c **** * Function Name: PWM_ReadCapture
 923:.\Generated_Source\PSoC4/PWM.c **** ********************************************************************************
 924:.\Generated_Source\PSoC4/PWM.c **** *
 925:.\Generated_Source\PSoC4/PWM.c **** * Summary:
 926:.\Generated_Source\PSoC4/PWM.c **** *  Reads the captured counter value. This API is applicable only for
 927:.\Generated_Source\PSoC4/PWM.c **** *  Timer/Counter with capture mode and Quadrature Decoder modes.
 928:.\Generated_Source\PSoC4/PWM.c **** *
 929:.\Generated_Source\PSoC4/PWM.c **** * Parameters:
 930:.\Generated_Source\PSoC4/PWM.c **** *  None
 931:.\Generated_Source\PSoC4/PWM.c **** *
 932:.\Generated_Source\PSoC4/PWM.c **** * Return:
 933:.\Generated_Source\PSoC4/PWM.c **** *  Capture value
 934:.\Generated_Source\PSoC4/PWM.c **** *
 935:.\Generated_Source\PSoC4/PWM.c **** *******************************************************************************/
 936:.\Generated_Source\PSoC4/PWM.c **** uint32 PWM_ReadCapture(void)
 937:.\Generated_Source\PSoC4/PWM.c **** {
 1360              		.loc 1 937 0
 1361              		.cfi_startproc
 1362 0000 80B5     		push	{r7, lr}
 1363              	.LCFI71:
 1364              		.cfi_def_cfa_offset 8
 1365              		.cfi_offset 7, -8
 1366              		.cfi_offset 14, -4
 1367 0002 00AF     		add	r7, sp, #0
 1368              	.LCFI72:
 1369              		.cfi_def_cfa_register 7
 938:.\Generated_Source\PSoC4/PWM.c ****     return (PWM_COMP_CAP_REG & PWM_16BIT_MASK);
 1370              		.loc 1 938 0
 1371 0004 034B     		ldr	r3, .L108
 1372 0006 1B68     		ldr	r3, [r3]
 1373 0008 1B04     		lsl	r3, r3, #16
 1374 000a 1B0C     		lsr	r3, r3, #16
 939:.\Generated_Source\PSoC4/PWM.c **** }
 1375              		.loc 1 939 0
 1376 000c 181C     		mov	r0, r3
 1377 000e BD46     		mov	sp, r7
 1378              		@ sp needed for prologue
 1379 0010 80BD     		pop	{r7, pc}
 1380              	.L109:
 1381 0012 C046     		.align	2
 1382              	.L108:
 1383 0014 0C010540 		.word	1074069772
 1384              		.cfi_endproc
 1385              	.LFE26:
 1386              		.size	PWM_ReadCapture, .-PWM_ReadCapture
 1387              		.section	.text.PWM_ReadCaptureBuf,"ax",%progbits
 1388              		.align	2
 1389              		.global	PWM_ReadCaptureBuf
 1390              		.code	16
 1391              		.thumb_func
 1392              		.type	PWM_ReadCaptureBuf, %function
 1393              	PWM_ReadCaptureBuf:
 1394              	.LFB27:
ARM GAS  C:\Users\gagan\AppData\Local\Temp\ccVfL2Av.s 			page 42


 940:.\Generated_Source\PSoC4/PWM.c **** 
 941:.\Generated_Source\PSoC4/PWM.c **** 
 942:.\Generated_Source\PSoC4/PWM.c **** /*******************************************************************************
 943:.\Generated_Source\PSoC4/PWM.c **** * Function Name: PWM_ReadCaptureBuf
 944:.\Generated_Source\PSoC4/PWM.c **** ********************************************************************************
 945:.\Generated_Source\PSoC4/PWM.c **** *
 946:.\Generated_Source\PSoC4/PWM.c **** * Summary:
 947:.\Generated_Source\PSoC4/PWM.c **** *  Reads the capture buffer register. This API is applicable only for
 948:.\Generated_Source\PSoC4/PWM.c **** *  Timer/Counter with capture mode and Quadrature Decoder modes.
 949:.\Generated_Source\PSoC4/PWM.c **** *
 950:.\Generated_Source\PSoC4/PWM.c **** * Parameters:
 951:.\Generated_Source\PSoC4/PWM.c **** *  None
 952:.\Generated_Source\PSoC4/PWM.c **** *
 953:.\Generated_Source\PSoC4/PWM.c **** * Return:
 954:.\Generated_Source\PSoC4/PWM.c **** *  Capture buffer value
 955:.\Generated_Source\PSoC4/PWM.c **** *
 956:.\Generated_Source\PSoC4/PWM.c **** *******************************************************************************/
 957:.\Generated_Source\PSoC4/PWM.c **** uint32 PWM_ReadCaptureBuf(void)
 958:.\Generated_Source\PSoC4/PWM.c **** {
 1395              		.loc 1 958 0
 1396              		.cfi_startproc
 1397 0000 80B5     		push	{r7, lr}
 1398              	.LCFI73:
 1399              		.cfi_def_cfa_offset 8
 1400              		.cfi_offset 7, -8
 1401              		.cfi_offset 14, -4
 1402 0002 00AF     		add	r7, sp, #0
 1403              	.LCFI74:
 1404              		.cfi_def_cfa_register 7
 959:.\Generated_Source\PSoC4/PWM.c ****     return (PWM_COMP_CAP_BUF_REG & PWM_16BIT_MASK);
 1405              		.loc 1 959 0
 1406 0004 034B     		ldr	r3, .L112
 1407 0006 1B68     		ldr	r3, [r3]
 1408 0008 1B04     		lsl	r3, r3, #16
 1409 000a 1B0C     		lsr	r3, r3, #16
 960:.\Generated_Source\PSoC4/PWM.c **** }
 1410              		.loc 1 960 0
 1411 000c 181C     		mov	r0, r3
 1412 000e BD46     		mov	sp, r7
 1413              		@ sp needed for prologue
 1414 0010 80BD     		pop	{r7, pc}
 1415              	.L113:
 1416 0012 C046     		.align	2
 1417              	.L112:
 1418 0014 10010540 		.word	1074069776
 1419              		.cfi_endproc
 1420              	.LFE27:
 1421              		.size	PWM_ReadCaptureBuf, .-PWM_ReadCaptureBuf
 1422              		.section	.text.PWM_SetCaptureMode,"ax",%progbits
 1423              		.align	2
 1424              		.global	PWM_SetCaptureMode
 1425              		.code	16
 1426              		.thumb_func
 1427              		.type	PWM_SetCaptureMode, %function
 1428              	PWM_SetCaptureMode:
 1429              	.LFB28:
 961:.\Generated_Source\PSoC4/PWM.c **** 
ARM GAS  C:\Users\gagan\AppData\Local\Temp\ccVfL2Av.s 			page 43


 962:.\Generated_Source\PSoC4/PWM.c **** 
 963:.\Generated_Source\PSoC4/PWM.c **** /*******************************************************************************
 964:.\Generated_Source\PSoC4/PWM.c **** * Function Name: PWM_SetCaptureMode
 965:.\Generated_Source\PSoC4/PWM.c **** ********************************************************************************
 966:.\Generated_Source\PSoC4/PWM.c **** *
 967:.\Generated_Source\PSoC4/PWM.c **** * Summary:
 968:.\Generated_Source\PSoC4/PWM.c **** *  Sets the capture trigger mode. For PWM mode this is the switch input.
 969:.\Generated_Source\PSoC4/PWM.c **** *  This input is not applicable to the Timer/Counter without Capture and
 970:.\Generated_Source\PSoC4/PWM.c **** *  Quadrature Decoder modes.
 971:.\Generated_Source\PSoC4/PWM.c **** *
 972:.\Generated_Source\PSoC4/PWM.c **** * Parameters:
 973:.\Generated_Source\PSoC4/PWM.c **** *  triggerMode: Enumerated trigger mode value
 974:.\Generated_Source\PSoC4/PWM.c **** *   Values:
 975:.\Generated_Source\PSoC4/PWM.c **** *     - PWM_TRIG_LEVEL     - Level
 976:.\Generated_Source\PSoC4/PWM.c **** *     - PWM_TRIG_RISING    - Rising edge
 977:.\Generated_Source\PSoC4/PWM.c **** *     - PWM_TRIG_FALLING   - Falling edge
 978:.\Generated_Source\PSoC4/PWM.c **** *     - PWM_TRIG_BOTH      - Both rising and falling edge
 979:.\Generated_Source\PSoC4/PWM.c **** *
 980:.\Generated_Source\PSoC4/PWM.c **** * Return:
 981:.\Generated_Source\PSoC4/PWM.c **** *  None
 982:.\Generated_Source\PSoC4/PWM.c **** *
 983:.\Generated_Source\PSoC4/PWM.c **** *******************************************************************************/
 984:.\Generated_Source\PSoC4/PWM.c **** void PWM_SetCaptureMode(uint32 triggerMode)
 985:.\Generated_Source\PSoC4/PWM.c **** {
 1430              		.loc 1 985 0
 1431              		.cfi_startproc
 1432 0000 80B5     		push	{r7, lr}
 1433              	.LCFI75:
 1434              		.cfi_def_cfa_offset 8
 1435              		.cfi_offset 7, -8
 1436              		.cfi_offset 14, -4
 1437 0002 84B0     		sub	sp, sp, #16
 1438              	.LCFI76:
 1439              		.cfi_def_cfa_offset 24
 1440 0004 00AF     		add	r7, sp, #0
 1441              	.LCFI77:
 1442              		.cfi_def_cfa_register 7
 1443 0006 7860     		str	r0, [r7, #4]
 986:.\Generated_Source\PSoC4/PWM.c ****     uint8 enableInterrupts;
 987:.\Generated_Source\PSoC4/PWM.c **** 
 988:.\Generated_Source\PSoC4/PWM.c ****     enableInterrupts = CyEnterCriticalSection();
 1444              		.loc 1 988 0
 1445 0008 FFF7FEFF 		bl	CyEnterCriticalSection
 1446 000c 031C     		mov	r3, r0
 1447 000e 1A1C     		mov	r2, r3
 1448 0010 3B1C     		mov	r3, r7
 1449 0012 0F33     		add	r3, r3, #15
 1450 0014 1A70     		strb	r2, [r3]
 989:.\Generated_Source\PSoC4/PWM.c **** 
 990:.\Generated_Source\PSoC4/PWM.c ****     PWM_TRIG_CONTROL1_REG &= (uint32)~PWM_CAPTURE_MASK;
 1451              		.loc 1 990 0
 1452 0016 0A4B     		ldr	r3, .L116
 1453 0018 094A     		ldr	r2, .L116
 1454 001a 1268     		ldr	r2, [r2]
 1455 001c 0321     		mov	r1, #3
 1456 001e 8A43     		bic	r2, r2, r1
 1457 0020 1A60     		str	r2, [r3]
ARM GAS  C:\Users\gagan\AppData\Local\Temp\ccVfL2Av.s 			page 44


 991:.\Generated_Source\PSoC4/PWM.c ****     PWM_TRIG_CONTROL1_REG |= triggerMode;
 1458              		.loc 1 991 0
 1459 0022 074B     		ldr	r3, .L116
 1460 0024 064A     		ldr	r2, .L116
 1461 0026 1168     		ldr	r1, [r2]
 1462 0028 7A68     		ldr	r2, [r7, #4]
 1463 002a 0A43     		orr	r2, r2, r1
 1464 002c 1A60     		str	r2, [r3]
 992:.\Generated_Source\PSoC4/PWM.c **** 
 993:.\Generated_Source\PSoC4/PWM.c ****     CyExitCriticalSection(enableInterrupts);
 1465              		.loc 1 993 0
 1466 002e 3B1C     		mov	r3, r7
 1467 0030 0F33     		add	r3, r3, #15
 1468 0032 1B78     		ldrb	r3, [r3]
 1469 0034 181C     		mov	r0, r3
 1470 0036 FFF7FEFF 		bl	CyExitCriticalSection
 994:.\Generated_Source\PSoC4/PWM.c **** }
 1471              		.loc 1 994 0
 1472 003a BD46     		mov	sp, r7
 1473 003c 04B0     		add	sp, sp, #16
 1474              		@ sp needed for prologue
 1475 003e 80BD     		pop	{r7, pc}
 1476              	.L117:
 1477              		.align	2
 1478              	.L116:
 1479 0040 24010540 		.word	1074069796
 1480              		.cfi_endproc
 1481              	.LFE28:
 1482              		.size	PWM_SetCaptureMode, .-PWM_SetCaptureMode
 1483              		.section	.text.PWM_SetReloadMode,"ax",%progbits
 1484              		.align	2
 1485              		.global	PWM_SetReloadMode
 1486              		.code	16
 1487              		.thumb_func
 1488              		.type	PWM_SetReloadMode, %function
 1489              	PWM_SetReloadMode:
 1490              	.LFB29:
 995:.\Generated_Source\PSoC4/PWM.c **** 
 996:.\Generated_Source\PSoC4/PWM.c **** 
 997:.\Generated_Source\PSoC4/PWM.c **** /*******************************************************************************
 998:.\Generated_Source\PSoC4/PWM.c **** * Function Name: PWM_SetReloadMode
 999:.\Generated_Source\PSoC4/PWM.c **** ********************************************************************************
1000:.\Generated_Source\PSoC4/PWM.c **** *
1001:.\Generated_Source\PSoC4/PWM.c **** * Summary:
1002:.\Generated_Source\PSoC4/PWM.c **** *  Sets the reload trigger mode. For Quadrature Decoder mode this is the index
1003:.\Generated_Source\PSoC4/PWM.c **** *  input.
1004:.\Generated_Source\PSoC4/PWM.c **** *
1005:.\Generated_Source\PSoC4/PWM.c **** * Parameters:
1006:.\Generated_Source\PSoC4/PWM.c **** *  triggerMode: Enumerated trigger mode value
1007:.\Generated_Source\PSoC4/PWM.c **** *   Values:
1008:.\Generated_Source\PSoC4/PWM.c **** *     - PWM_TRIG_LEVEL     - Level
1009:.\Generated_Source\PSoC4/PWM.c **** *     - PWM_TRIG_RISING    - Rising edge
1010:.\Generated_Source\PSoC4/PWM.c **** *     - PWM_TRIG_FALLING   - Falling edge
1011:.\Generated_Source\PSoC4/PWM.c **** *     - PWM_TRIG_BOTH      - Both rising and falling edge
1012:.\Generated_Source\PSoC4/PWM.c **** *
1013:.\Generated_Source\PSoC4/PWM.c **** * Return:
1014:.\Generated_Source\PSoC4/PWM.c **** *  None
ARM GAS  C:\Users\gagan\AppData\Local\Temp\ccVfL2Av.s 			page 45


1015:.\Generated_Source\PSoC4/PWM.c **** *
1016:.\Generated_Source\PSoC4/PWM.c **** *******************************************************************************/
1017:.\Generated_Source\PSoC4/PWM.c **** void PWM_SetReloadMode(uint32 triggerMode)
1018:.\Generated_Source\PSoC4/PWM.c **** {
 1491              		.loc 1 1018 0
 1492              		.cfi_startproc
 1493 0000 80B5     		push	{r7, lr}
 1494              	.LCFI78:
 1495              		.cfi_def_cfa_offset 8
 1496              		.cfi_offset 7, -8
 1497              		.cfi_offset 14, -4
 1498 0002 84B0     		sub	sp, sp, #16
 1499              	.LCFI79:
 1500              		.cfi_def_cfa_offset 24
 1501 0004 00AF     		add	r7, sp, #0
 1502              	.LCFI80:
 1503              		.cfi_def_cfa_register 7
 1504 0006 7860     		str	r0, [r7, #4]
1019:.\Generated_Source\PSoC4/PWM.c ****     uint8 enableInterrupts;
1020:.\Generated_Source\PSoC4/PWM.c **** 
1021:.\Generated_Source\PSoC4/PWM.c ****     enableInterrupts = CyEnterCriticalSection();
 1505              		.loc 1 1021 0
 1506 0008 FFF7FEFF 		bl	CyEnterCriticalSection
 1507 000c 031C     		mov	r3, r0
 1508 000e 1A1C     		mov	r2, r3
 1509 0010 3B1C     		mov	r3, r7
 1510 0012 0F33     		add	r3, r3, #15
 1511 0014 1A70     		strb	r2, [r3]
1022:.\Generated_Source\PSoC4/PWM.c **** 
1023:.\Generated_Source\PSoC4/PWM.c ****     PWM_TRIG_CONTROL1_REG &= (uint32)~PWM_RELOAD_MASK;
 1512              		.loc 1 1023 0
 1513 0016 0B4B     		ldr	r3, .L120
 1514 0018 0A4A     		ldr	r2, .L120
 1515 001a 1268     		ldr	r2, [r2]
 1516 001c 3021     		mov	r1, #48
 1517 001e 8A43     		bic	r2, r2, r1
 1518 0020 1A60     		str	r2, [r3]
1024:.\Generated_Source\PSoC4/PWM.c ****     PWM_TRIG_CONTROL1_REG |= ((uint32)(triggerMode << PWM_RELOAD_SHIFT));
 1519              		.loc 1 1024 0
 1520 0022 084B     		ldr	r3, .L120
 1521 0024 074A     		ldr	r2, .L120
 1522 0026 1168     		ldr	r1, [r2]
 1523 0028 7A68     		ldr	r2, [r7, #4]
 1524 002a 1201     		lsl	r2, r2, #4
 1525 002c 0A43     		orr	r2, r2, r1
 1526 002e 1A60     		str	r2, [r3]
1025:.\Generated_Source\PSoC4/PWM.c **** 
1026:.\Generated_Source\PSoC4/PWM.c ****     CyExitCriticalSection(enableInterrupts);
 1527              		.loc 1 1026 0
 1528 0030 3B1C     		mov	r3, r7
 1529 0032 0F33     		add	r3, r3, #15
 1530 0034 1B78     		ldrb	r3, [r3]
 1531 0036 181C     		mov	r0, r3
 1532 0038 FFF7FEFF 		bl	CyExitCriticalSection
1027:.\Generated_Source\PSoC4/PWM.c **** }
 1533              		.loc 1 1027 0
 1534 003c BD46     		mov	sp, r7
ARM GAS  C:\Users\gagan\AppData\Local\Temp\ccVfL2Av.s 			page 46


 1535 003e 04B0     		add	sp, sp, #16
 1536              		@ sp needed for prologue
 1537 0040 80BD     		pop	{r7, pc}
 1538              	.L121:
 1539 0042 C046     		.align	2
 1540              	.L120:
 1541 0044 24010540 		.word	1074069796
 1542              		.cfi_endproc
 1543              	.LFE29:
 1544              		.size	PWM_SetReloadMode, .-PWM_SetReloadMode
 1545              		.section	.text.PWM_SetStartMode,"ax",%progbits
 1546              		.align	2
 1547              		.global	PWM_SetStartMode
 1548              		.code	16
 1549              		.thumb_func
 1550              		.type	PWM_SetStartMode, %function
 1551              	PWM_SetStartMode:
 1552              	.LFB30:
1028:.\Generated_Source\PSoC4/PWM.c **** 
1029:.\Generated_Source\PSoC4/PWM.c **** 
1030:.\Generated_Source\PSoC4/PWM.c **** /*******************************************************************************
1031:.\Generated_Source\PSoC4/PWM.c **** * Function Name: PWM_SetStartMode
1032:.\Generated_Source\PSoC4/PWM.c **** ********************************************************************************
1033:.\Generated_Source\PSoC4/PWM.c **** *
1034:.\Generated_Source\PSoC4/PWM.c **** * Summary:
1035:.\Generated_Source\PSoC4/PWM.c **** *  Sets the start trigger mode. For Quadrature Decoder mode this is the
1036:.\Generated_Source\PSoC4/PWM.c **** *  phiB input.
1037:.\Generated_Source\PSoC4/PWM.c **** *
1038:.\Generated_Source\PSoC4/PWM.c **** * Parameters:
1039:.\Generated_Source\PSoC4/PWM.c **** *  triggerMode: Enumerated trigger mode value
1040:.\Generated_Source\PSoC4/PWM.c **** *   Values:
1041:.\Generated_Source\PSoC4/PWM.c **** *     - PWM_TRIG_LEVEL     - Level
1042:.\Generated_Source\PSoC4/PWM.c **** *     - PWM_TRIG_RISING    - Rising edge
1043:.\Generated_Source\PSoC4/PWM.c **** *     - PWM_TRIG_FALLING   - Falling edge
1044:.\Generated_Source\PSoC4/PWM.c **** *     - PWM_TRIG_BOTH      - Both rising and falling edge
1045:.\Generated_Source\PSoC4/PWM.c **** *
1046:.\Generated_Source\PSoC4/PWM.c **** * Return:
1047:.\Generated_Source\PSoC4/PWM.c **** *  None
1048:.\Generated_Source\PSoC4/PWM.c **** *
1049:.\Generated_Source\PSoC4/PWM.c **** *******************************************************************************/
1050:.\Generated_Source\PSoC4/PWM.c **** void PWM_SetStartMode(uint32 triggerMode)
1051:.\Generated_Source\PSoC4/PWM.c **** {
 1553              		.loc 1 1051 0
 1554              		.cfi_startproc
 1555 0000 80B5     		push	{r7, lr}
 1556              	.LCFI81:
 1557              		.cfi_def_cfa_offset 8
 1558              		.cfi_offset 7, -8
 1559              		.cfi_offset 14, -4
 1560 0002 84B0     		sub	sp, sp, #16
 1561              	.LCFI82:
 1562              		.cfi_def_cfa_offset 24
 1563 0004 00AF     		add	r7, sp, #0
 1564              	.LCFI83:
 1565              		.cfi_def_cfa_register 7
 1566 0006 7860     		str	r0, [r7, #4]
1052:.\Generated_Source\PSoC4/PWM.c ****     uint8 enableInterrupts;
ARM GAS  C:\Users\gagan\AppData\Local\Temp\ccVfL2Av.s 			page 47


1053:.\Generated_Source\PSoC4/PWM.c **** 
1054:.\Generated_Source\PSoC4/PWM.c ****     enableInterrupts = CyEnterCriticalSection();
 1567              		.loc 1 1054 0
 1568 0008 FFF7FEFF 		bl	CyEnterCriticalSection
 1569 000c 031C     		mov	r3, r0
 1570 000e 1A1C     		mov	r2, r3
 1571 0010 3B1C     		mov	r3, r7
 1572 0012 0F33     		add	r3, r3, #15
 1573 0014 1A70     		strb	r2, [r3]
1055:.\Generated_Source\PSoC4/PWM.c **** 
1056:.\Generated_Source\PSoC4/PWM.c ****     PWM_TRIG_CONTROL1_REG &= (uint32)~PWM_START_MASK;
 1574              		.loc 1 1056 0
 1575 0016 0B4B     		ldr	r3, .L124
 1576 0018 0A4A     		ldr	r2, .L124
 1577 001a 1168     		ldr	r1, [r2]
 1578 001c 0A4A     		ldr	r2, .L124+4
 1579 001e 0A40     		and	r2, r2, r1
 1580 0020 1A60     		str	r2, [r3]
1057:.\Generated_Source\PSoC4/PWM.c ****     PWM_TRIG_CONTROL1_REG |= ((uint32)(triggerMode << PWM_START_SHIFT));
 1581              		.loc 1 1057 0
 1582 0022 084B     		ldr	r3, .L124
 1583 0024 074A     		ldr	r2, .L124
 1584 0026 1168     		ldr	r1, [r2]
 1585 0028 7A68     		ldr	r2, [r7, #4]
 1586 002a 1202     		lsl	r2, r2, #8
 1587 002c 0A43     		orr	r2, r2, r1
 1588 002e 1A60     		str	r2, [r3]
1058:.\Generated_Source\PSoC4/PWM.c **** 
1059:.\Generated_Source\PSoC4/PWM.c ****     CyExitCriticalSection(enableInterrupts);
 1589              		.loc 1 1059 0
 1590 0030 3B1C     		mov	r3, r7
 1591 0032 0F33     		add	r3, r3, #15
 1592 0034 1B78     		ldrb	r3, [r3]
 1593 0036 181C     		mov	r0, r3
 1594 0038 FFF7FEFF 		bl	CyExitCriticalSection
1060:.\Generated_Source\PSoC4/PWM.c **** }
 1595              		.loc 1 1060 0
 1596 003c BD46     		mov	sp, r7
 1597 003e 04B0     		add	sp, sp, #16
 1598              		@ sp needed for prologue
 1599 0040 80BD     		pop	{r7, pc}
 1600              	.L125:
 1601 0042 C046     		.align	2
 1602              	.L124:
 1603 0044 24010540 		.word	1074069796
 1604 0048 FFFCFFFF 		.word	-769
 1605              		.cfi_endproc
 1606              	.LFE30:
 1607              		.size	PWM_SetStartMode, .-PWM_SetStartMode
 1608              		.section	.text.PWM_SetStopMode,"ax",%progbits
 1609              		.align	2
 1610              		.global	PWM_SetStopMode
 1611              		.code	16
 1612              		.thumb_func
 1613              		.type	PWM_SetStopMode, %function
 1614              	PWM_SetStopMode:
 1615              	.LFB31:
ARM GAS  C:\Users\gagan\AppData\Local\Temp\ccVfL2Av.s 			page 48


1061:.\Generated_Source\PSoC4/PWM.c **** 
1062:.\Generated_Source\PSoC4/PWM.c **** 
1063:.\Generated_Source\PSoC4/PWM.c **** /*******************************************************************************
1064:.\Generated_Source\PSoC4/PWM.c **** * Function Name: PWM_SetStopMode
1065:.\Generated_Source\PSoC4/PWM.c **** ********************************************************************************
1066:.\Generated_Source\PSoC4/PWM.c **** *
1067:.\Generated_Source\PSoC4/PWM.c **** * Summary:
1068:.\Generated_Source\PSoC4/PWM.c **** *  Sets the stop trigger mode. For PWM mode this is the kill input.
1069:.\Generated_Source\PSoC4/PWM.c **** *
1070:.\Generated_Source\PSoC4/PWM.c **** * Parameters:
1071:.\Generated_Source\PSoC4/PWM.c **** *  triggerMode: Enumerated trigger mode value
1072:.\Generated_Source\PSoC4/PWM.c **** *   Values:
1073:.\Generated_Source\PSoC4/PWM.c **** *     - PWM_TRIG_LEVEL     - Level
1074:.\Generated_Source\PSoC4/PWM.c **** *     - PWM_TRIG_RISING    - Rising edge
1075:.\Generated_Source\PSoC4/PWM.c **** *     - PWM_TRIG_FALLING   - Falling edge
1076:.\Generated_Source\PSoC4/PWM.c **** *     - PWM_TRIG_BOTH      - Both rising and falling edge
1077:.\Generated_Source\PSoC4/PWM.c **** *
1078:.\Generated_Source\PSoC4/PWM.c **** * Return:
1079:.\Generated_Source\PSoC4/PWM.c **** *  None
1080:.\Generated_Source\PSoC4/PWM.c **** *
1081:.\Generated_Source\PSoC4/PWM.c **** *******************************************************************************/
1082:.\Generated_Source\PSoC4/PWM.c **** void PWM_SetStopMode(uint32 triggerMode)
1083:.\Generated_Source\PSoC4/PWM.c **** {
 1616              		.loc 1 1083 0
 1617              		.cfi_startproc
 1618 0000 80B5     		push	{r7, lr}
 1619              	.LCFI84:
 1620              		.cfi_def_cfa_offset 8
 1621              		.cfi_offset 7, -8
 1622              		.cfi_offset 14, -4
 1623 0002 84B0     		sub	sp, sp, #16
 1624              	.LCFI85:
 1625              		.cfi_def_cfa_offset 24
 1626 0004 00AF     		add	r7, sp, #0
 1627              	.LCFI86:
 1628              		.cfi_def_cfa_register 7
 1629 0006 7860     		str	r0, [r7, #4]
1084:.\Generated_Source\PSoC4/PWM.c ****     uint8 enableInterrupts;
1085:.\Generated_Source\PSoC4/PWM.c **** 
1086:.\Generated_Source\PSoC4/PWM.c ****     enableInterrupts = CyEnterCriticalSection();
 1630              		.loc 1 1086 0
 1631 0008 FFF7FEFF 		bl	CyEnterCriticalSection
 1632 000c 031C     		mov	r3, r0
 1633 000e 1A1C     		mov	r2, r3
 1634 0010 3B1C     		mov	r3, r7
 1635 0012 0F33     		add	r3, r3, #15
 1636 0014 1A70     		strb	r2, [r3]
1087:.\Generated_Source\PSoC4/PWM.c **** 
1088:.\Generated_Source\PSoC4/PWM.c ****     PWM_TRIG_CONTROL1_REG &= (uint32)~PWM_STOP_MASK;
 1637              		.loc 1 1088 0
 1638 0016 0B4B     		ldr	r3, .L128
 1639 0018 0A4A     		ldr	r2, .L128
 1640 001a 1268     		ldr	r2, [r2]
 1641 001c C021     		mov	r1, #192
 1642 001e 8A43     		bic	r2, r2, r1
 1643 0020 1A60     		str	r2, [r3]
1089:.\Generated_Source\PSoC4/PWM.c ****     PWM_TRIG_CONTROL1_REG |= ((uint32)(triggerMode << PWM_STOP_SHIFT));
ARM GAS  C:\Users\gagan\AppData\Local\Temp\ccVfL2Av.s 			page 49


 1644              		.loc 1 1089 0
 1645 0022 084B     		ldr	r3, .L128
 1646 0024 074A     		ldr	r2, .L128
 1647 0026 1168     		ldr	r1, [r2]
 1648 0028 7A68     		ldr	r2, [r7, #4]
 1649 002a 9201     		lsl	r2, r2, #6
 1650 002c 0A43     		orr	r2, r2, r1
 1651 002e 1A60     		str	r2, [r3]
1090:.\Generated_Source\PSoC4/PWM.c **** 
1091:.\Generated_Source\PSoC4/PWM.c ****     CyExitCriticalSection(enableInterrupts);
 1652              		.loc 1 1091 0
 1653 0030 3B1C     		mov	r3, r7
 1654 0032 0F33     		add	r3, r3, #15
 1655 0034 1B78     		ldrb	r3, [r3]
 1656 0036 181C     		mov	r0, r3
 1657 0038 FFF7FEFF 		bl	CyExitCriticalSection
1092:.\Generated_Source\PSoC4/PWM.c **** }
 1658              		.loc 1 1092 0
 1659 003c BD46     		mov	sp, r7
 1660 003e 04B0     		add	sp, sp, #16
 1661              		@ sp needed for prologue
 1662 0040 80BD     		pop	{r7, pc}
 1663              	.L129:
 1664 0042 C046     		.align	2
 1665              	.L128:
 1666 0044 24010540 		.word	1074069796
 1667              		.cfi_endproc
 1668              	.LFE31:
 1669              		.size	PWM_SetStopMode, .-PWM_SetStopMode
 1670              		.section	.text.PWM_SetCountMode,"ax",%progbits
 1671              		.align	2
 1672              		.global	PWM_SetCountMode
 1673              		.code	16
 1674              		.thumb_func
 1675              		.type	PWM_SetCountMode, %function
 1676              	PWM_SetCountMode:
 1677              	.LFB32:
1093:.\Generated_Source\PSoC4/PWM.c **** 
1094:.\Generated_Source\PSoC4/PWM.c **** 
1095:.\Generated_Source\PSoC4/PWM.c **** /*******************************************************************************
1096:.\Generated_Source\PSoC4/PWM.c **** * Function Name: PWM_SetCountMode
1097:.\Generated_Source\PSoC4/PWM.c **** ********************************************************************************
1098:.\Generated_Source\PSoC4/PWM.c **** *
1099:.\Generated_Source\PSoC4/PWM.c **** * Summary:
1100:.\Generated_Source\PSoC4/PWM.c **** *  Sets the count trigger mode. For Quadrature Decoder mode this is the phiA
1101:.\Generated_Source\PSoC4/PWM.c **** *  input.
1102:.\Generated_Source\PSoC4/PWM.c **** *
1103:.\Generated_Source\PSoC4/PWM.c **** * Parameters:
1104:.\Generated_Source\PSoC4/PWM.c **** *  triggerMode: Enumerated trigger mode value
1105:.\Generated_Source\PSoC4/PWM.c **** *   Values:
1106:.\Generated_Source\PSoC4/PWM.c **** *     - PWM_TRIG_LEVEL     - Level
1107:.\Generated_Source\PSoC4/PWM.c **** *     - PWM_TRIG_RISING    - Rising edge
1108:.\Generated_Source\PSoC4/PWM.c **** *     - PWM_TRIG_FALLING   - Falling edge
1109:.\Generated_Source\PSoC4/PWM.c **** *     - PWM_TRIG_BOTH      - Both rising and falling edge
1110:.\Generated_Source\PSoC4/PWM.c **** *
1111:.\Generated_Source\PSoC4/PWM.c **** * Return:
1112:.\Generated_Source\PSoC4/PWM.c **** *  None
ARM GAS  C:\Users\gagan\AppData\Local\Temp\ccVfL2Av.s 			page 50


1113:.\Generated_Source\PSoC4/PWM.c **** *
1114:.\Generated_Source\PSoC4/PWM.c **** *******************************************************************************/
1115:.\Generated_Source\PSoC4/PWM.c **** void PWM_SetCountMode(uint32 triggerMode)
1116:.\Generated_Source\PSoC4/PWM.c **** {
 1678              		.loc 1 1116 0
 1679              		.cfi_startproc
 1680 0000 80B5     		push	{r7, lr}
 1681              	.LCFI87:
 1682              		.cfi_def_cfa_offset 8
 1683              		.cfi_offset 7, -8
 1684              		.cfi_offset 14, -4
 1685 0002 84B0     		sub	sp, sp, #16
 1686              	.LCFI88:
 1687              		.cfi_def_cfa_offset 24
 1688 0004 00AF     		add	r7, sp, #0
 1689              	.LCFI89:
 1690              		.cfi_def_cfa_register 7
 1691 0006 7860     		str	r0, [r7, #4]
1117:.\Generated_Source\PSoC4/PWM.c ****     uint8 enableInterrupts;
1118:.\Generated_Source\PSoC4/PWM.c **** 
1119:.\Generated_Source\PSoC4/PWM.c ****     enableInterrupts = CyEnterCriticalSection();
 1692              		.loc 1 1119 0
 1693 0008 FFF7FEFF 		bl	CyEnterCriticalSection
 1694 000c 031C     		mov	r3, r0
 1695 000e 1A1C     		mov	r2, r3
 1696 0010 3B1C     		mov	r3, r7
 1697 0012 0F33     		add	r3, r3, #15
 1698 0014 1A70     		strb	r2, [r3]
1120:.\Generated_Source\PSoC4/PWM.c **** 
1121:.\Generated_Source\PSoC4/PWM.c ****     PWM_TRIG_CONTROL1_REG &= (uint32)~PWM_COUNT_MASK;
 1699              		.loc 1 1121 0
 1700 0016 0B4B     		ldr	r3, .L132
 1701 0018 0A4A     		ldr	r2, .L132
 1702 001a 1268     		ldr	r2, [r2]
 1703 001c 0C21     		mov	r1, #12
 1704 001e 8A43     		bic	r2, r2, r1
 1705 0020 1A60     		str	r2, [r3]
1122:.\Generated_Source\PSoC4/PWM.c ****     PWM_TRIG_CONTROL1_REG |= ((uint32)(triggerMode << PWM_COUNT_SHIFT));
 1706              		.loc 1 1122 0
 1707 0022 084B     		ldr	r3, .L132
 1708 0024 074A     		ldr	r2, .L132
 1709 0026 1168     		ldr	r1, [r2]
 1710 0028 7A68     		ldr	r2, [r7, #4]
 1711 002a 9200     		lsl	r2, r2, #2
 1712 002c 0A43     		orr	r2, r2, r1
 1713 002e 1A60     		str	r2, [r3]
1123:.\Generated_Source\PSoC4/PWM.c **** 
1124:.\Generated_Source\PSoC4/PWM.c ****     CyExitCriticalSection(enableInterrupts);
 1714              		.loc 1 1124 0
 1715 0030 3B1C     		mov	r3, r7
 1716 0032 0F33     		add	r3, r3, #15
 1717 0034 1B78     		ldrb	r3, [r3]
 1718 0036 181C     		mov	r0, r3
 1719 0038 FFF7FEFF 		bl	CyExitCriticalSection
1125:.\Generated_Source\PSoC4/PWM.c **** }
 1720              		.loc 1 1125 0
 1721 003c BD46     		mov	sp, r7
ARM GAS  C:\Users\gagan\AppData\Local\Temp\ccVfL2Av.s 			page 51


 1722 003e 04B0     		add	sp, sp, #16
 1723              		@ sp needed for prologue
 1724 0040 80BD     		pop	{r7, pc}
 1725              	.L133:
 1726 0042 C046     		.align	2
 1727              	.L132:
 1728 0044 24010540 		.word	1074069796
 1729              		.cfi_endproc
 1730              	.LFE32:
 1731              		.size	PWM_SetCountMode, .-PWM_SetCountMode
 1732              		.section	.text.PWM_TriggerCommand,"ax",%progbits
 1733              		.align	2
 1734              		.global	PWM_TriggerCommand
 1735              		.code	16
 1736              		.thumb_func
 1737              		.type	PWM_TriggerCommand, %function
 1738              	PWM_TriggerCommand:
 1739              	.LFB33:
1126:.\Generated_Source\PSoC4/PWM.c **** 
1127:.\Generated_Source\PSoC4/PWM.c **** 
1128:.\Generated_Source\PSoC4/PWM.c **** /*******************************************************************************
1129:.\Generated_Source\PSoC4/PWM.c **** * Function Name: PWM_TriggerCommand
1130:.\Generated_Source\PSoC4/PWM.c **** ********************************************************************************
1131:.\Generated_Source\PSoC4/PWM.c **** *
1132:.\Generated_Source\PSoC4/PWM.c **** * Summary:
1133:.\Generated_Source\PSoC4/PWM.c **** *  Triggers the designated command to occur on the designated TCPWM instances.
1134:.\Generated_Source\PSoC4/PWM.c **** *  The mask can be used to apply this command simultaneously to more than one
1135:.\Generated_Source\PSoC4/PWM.c **** *  instance.  This allows multiple TCPWM instances to be synchronized.
1136:.\Generated_Source\PSoC4/PWM.c **** *
1137:.\Generated_Source\PSoC4/PWM.c **** * Parameters:
1138:.\Generated_Source\PSoC4/PWM.c **** *  mask: Combination of mask bits for each instance of the TCPWM that the
1139:.\Generated_Source\PSoC4/PWM.c **** *        command should apply to.  This function from one instance can be used
1140:.\Generated_Source\PSoC4/PWM.c **** *        to apply the command to any of the instances in the design.
1141:.\Generated_Source\PSoC4/PWM.c **** *        The mask value for a specific instance is available with the MASK
1142:.\Generated_Source\PSoC4/PWM.c **** *        define.
1143:.\Generated_Source\PSoC4/PWM.c **** *  command: Enumerated command values. Capture command only applicable for
1144:.\Generated_Source\PSoC4/PWM.c **** *           Timer/Counter with Capture and PWM modes.
1145:.\Generated_Source\PSoC4/PWM.c **** *   Values:
1146:.\Generated_Source\PSoC4/PWM.c **** *     - PWM_CMD_CAPTURE    - Trigger Capture command
1147:.\Generated_Source\PSoC4/PWM.c **** *     - PWM_CMD_RELOAD     - Trigger Reload command
1148:.\Generated_Source\PSoC4/PWM.c **** *     - PWM_CMD_STOP       - Trigger Stop command
1149:.\Generated_Source\PSoC4/PWM.c **** *     - PWM_CMD_START      - Trigger Start command
1150:.\Generated_Source\PSoC4/PWM.c **** *
1151:.\Generated_Source\PSoC4/PWM.c **** * Return:
1152:.\Generated_Source\PSoC4/PWM.c **** *  None
1153:.\Generated_Source\PSoC4/PWM.c **** *
1154:.\Generated_Source\PSoC4/PWM.c **** *******************************************************************************/
1155:.\Generated_Source\PSoC4/PWM.c **** void PWM_TriggerCommand(uint32 mask, uint32 command)
1156:.\Generated_Source\PSoC4/PWM.c **** {
 1740              		.loc 1 1156 0
 1741              		.cfi_startproc
 1742 0000 80B5     		push	{r7, lr}
 1743              	.LCFI90:
 1744              		.cfi_def_cfa_offset 8
 1745              		.cfi_offset 7, -8
 1746              		.cfi_offset 14, -4
 1747 0002 84B0     		sub	sp, sp, #16
ARM GAS  C:\Users\gagan\AppData\Local\Temp\ccVfL2Av.s 			page 52


 1748              	.LCFI91:
 1749              		.cfi_def_cfa_offset 24
 1750 0004 00AF     		add	r7, sp, #0
 1751              	.LCFI92:
 1752              		.cfi_def_cfa_register 7
 1753 0006 7860     		str	r0, [r7, #4]
 1754 0008 3960     		str	r1, [r7]
1157:.\Generated_Source\PSoC4/PWM.c ****     uint8 enableInterrupts;
1158:.\Generated_Source\PSoC4/PWM.c **** 
1159:.\Generated_Source\PSoC4/PWM.c ****     enableInterrupts = CyEnterCriticalSection();
 1755              		.loc 1 1159 0
 1756 000a FFF7FEFF 		bl	CyEnterCriticalSection
 1757 000e 031C     		mov	r3, r0
 1758 0010 1A1C     		mov	r2, r3
 1759 0012 3B1C     		mov	r3, r7
 1760 0014 0F33     		add	r3, r3, #15
 1761 0016 1A70     		strb	r2, [r3]
1160:.\Generated_Source\PSoC4/PWM.c **** 
1161:.\Generated_Source\PSoC4/PWM.c ****     PWM_COMMAND_REG = ((uint32)(mask << command));
 1762              		.loc 1 1161 0
 1763 0018 074B     		ldr	r3, .L136
 1764 001a 3A68     		ldr	r2, [r7]
 1765 001c 7968     		ldr	r1, [r7, #4]
 1766 001e 081C     		mov	r0, r1
 1767 0020 9040     		lsl	r0, r0, r2
 1768 0022 021C     		mov	r2, r0
 1769 0024 1A60     		str	r2, [r3]
1162:.\Generated_Source\PSoC4/PWM.c **** 
1163:.\Generated_Source\PSoC4/PWM.c ****     CyExitCriticalSection(enableInterrupts);
 1770              		.loc 1 1163 0
 1771 0026 3B1C     		mov	r3, r7
 1772 0028 0F33     		add	r3, r3, #15
 1773 002a 1B78     		ldrb	r3, [r3]
 1774 002c 181C     		mov	r0, r3
 1775 002e FFF7FEFF 		bl	CyExitCriticalSection
1164:.\Generated_Source\PSoC4/PWM.c **** }
 1776              		.loc 1 1164 0
 1777 0032 BD46     		mov	sp, r7
 1778 0034 04B0     		add	sp, sp, #16
 1779              		@ sp needed for prologue
 1780 0036 80BD     		pop	{r7, pc}
 1781              	.L137:
 1782              		.align	2
 1783              	.L136:
 1784 0038 08000540 		.word	1074069512
 1785              		.cfi_endproc
 1786              	.LFE33:
 1787              		.size	PWM_TriggerCommand, .-PWM_TriggerCommand
 1788              		.section	.text.PWM_ReadStatus,"ax",%progbits
 1789              		.align	2
 1790              		.global	PWM_ReadStatus
 1791              		.code	16
 1792              		.thumb_func
 1793              		.type	PWM_ReadStatus, %function
 1794              	PWM_ReadStatus:
 1795              	.LFB34:
1165:.\Generated_Source\PSoC4/PWM.c **** 
ARM GAS  C:\Users\gagan\AppData\Local\Temp\ccVfL2Av.s 			page 53


1166:.\Generated_Source\PSoC4/PWM.c **** 
1167:.\Generated_Source\PSoC4/PWM.c **** /*******************************************************************************
1168:.\Generated_Source\PSoC4/PWM.c **** * Function Name: PWM_ReadStatus
1169:.\Generated_Source\PSoC4/PWM.c **** ********************************************************************************
1170:.\Generated_Source\PSoC4/PWM.c **** *
1171:.\Generated_Source\PSoC4/PWM.c **** * Summary:
1172:.\Generated_Source\PSoC4/PWM.c **** *  Reads the status of the PWM.
1173:.\Generated_Source\PSoC4/PWM.c **** *
1174:.\Generated_Source\PSoC4/PWM.c **** * Parameters:
1175:.\Generated_Source\PSoC4/PWM.c **** *  None
1176:.\Generated_Source\PSoC4/PWM.c **** *
1177:.\Generated_Source\PSoC4/PWM.c **** * Return:
1178:.\Generated_Source\PSoC4/PWM.c **** *  Status
1179:.\Generated_Source\PSoC4/PWM.c **** *   Values:
1180:.\Generated_Source\PSoC4/PWM.c **** *     - PWM_STATUS_DOWN    - Set if counting down
1181:.\Generated_Source\PSoC4/PWM.c **** *     - PWM_STATUS_RUNNING - Set if counter is running
1182:.\Generated_Source\PSoC4/PWM.c **** *
1183:.\Generated_Source\PSoC4/PWM.c **** *******************************************************************************/
1184:.\Generated_Source\PSoC4/PWM.c **** uint32 PWM_ReadStatus(void)
1185:.\Generated_Source\PSoC4/PWM.c **** {
 1796              		.loc 1 1185 0
 1797              		.cfi_startproc
 1798 0000 80B5     		push	{r7, lr}
 1799              	.LCFI93:
 1800              		.cfi_def_cfa_offset 8
 1801              		.cfi_offset 7, -8
 1802              		.cfi_offset 14, -4
 1803 0002 00AF     		add	r7, sp, #0
 1804              	.LCFI94:
 1805              		.cfi_def_cfa_register 7
1186:.\Generated_Source\PSoC4/PWM.c ****     return ((PWM_STATUS_REG >> PWM_RUNNING_STATUS_SHIFT) |
 1806              		.loc 1 1186 0
 1807 0004 054B     		ldr	r3, .L140
 1808 0006 1B68     		ldr	r3, [r3]
 1809 0008 9A0F     		lsr	r2, r3, #30
1187:.\Generated_Source\PSoC4/PWM.c ****             (PWM_STATUS_REG & PWM_STATUS_DOWN));
 1810              		.loc 1 1187 0
 1811 000a 044B     		ldr	r3, .L140
 1812 000c 1968     		ldr	r1, [r3]
 1813 000e 0123     		mov	r3, #1
 1814 0010 0B40     		and	r3, r3, r1
 1815              		.loc 1 1186 0
 1816 0012 1343     		orr	r3, r3, r2
1188:.\Generated_Source\PSoC4/PWM.c **** }
 1817              		.loc 1 1188 0
 1818 0014 181C     		mov	r0, r3
 1819 0016 BD46     		mov	sp, r7
 1820              		@ sp needed for prologue
 1821 0018 80BD     		pop	{r7, pc}
 1822              	.L141:
 1823 001a C046     		.align	2
 1824              	.L140:
 1825 001c 04010540 		.word	1074069764
 1826              		.cfi_endproc
 1827              	.LFE34:
 1828              		.size	PWM_ReadStatus, .-PWM_ReadStatus
 1829              		.section	.text.PWM_SetInterruptMode,"ax",%progbits
ARM GAS  C:\Users\gagan\AppData\Local\Temp\ccVfL2Av.s 			page 54


 1830              		.align	2
 1831              		.global	PWM_SetInterruptMode
 1832              		.code	16
 1833              		.thumb_func
 1834              		.type	PWM_SetInterruptMode, %function
 1835              	PWM_SetInterruptMode:
 1836              	.LFB35:
1189:.\Generated_Source\PSoC4/PWM.c **** 
1190:.\Generated_Source\PSoC4/PWM.c **** 
1191:.\Generated_Source\PSoC4/PWM.c **** /*******************************************************************************
1192:.\Generated_Source\PSoC4/PWM.c **** * Function Name: PWM_SetInterruptMode
1193:.\Generated_Source\PSoC4/PWM.c **** ********************************************************************************
1194:.\Generated_Source\PSoC4/PWM.c **** *
1195:.\Generated_Source\PSoC4/PWM.c **** * Summary:
1196:.\Generated_Source\PSoC4/PWM.c **** *  Sets the interrupt mask to control which interrupt
1197:.\Generated_Source\PSoC4/PWM.c **** *  requests generate the interrupt signal.
1198:.\Generated_Source\PSoC4/PWM.c **** *
1199:.\Generated_Source\PSoC4/PWM.c **** * Parameters:
1200:.\Generated_Source\PSoC4/PWM.c **** *   interruptMask: Mask of bits to be enabled
1201:.\Generated_Source\PSoC4/PWM.c **** *   Values:
1202:.\Generated_Source\PSoC4/PWM.c **** *     - PWM_INTR_MASK_TC       - Terminal count mask
1203:.\Generated_Source\PSoC4/PWM.c **** *     - PWM_INTR_MASK_CC_MATCH - Compare count / capture mask
1204:.\Generated_Source\PSoC4/PWM.c **** *
1205:.\Generated_Source\PSoC4/PWM.c **** * Return:
1206:.\Generated_Source\PSoC4/PWM.c **** *  None
1207:.\Generated_Source\PSoC4/PWM.c **** *
1208:.\Generated_Source\PSoC4/PWM.c **** *******************************************************************************/
1209:.\Generated_Source\PSoC4/PWM.c **** void PWM_SetInterruptMode(uint32 interruptMask)
1210:.\Generated_Source\PSoC4/PWM.c **** {
 1837              		.loc 1 1210 0
 1838              		.cfi_startproc
 1839 0000 80B5     		push	{r7, lr}
 1840              	.LCFI95:
 1841              		.cfi_def_cfa_offset 8
 1842              		.cfi_offset 7, -8
 1843              		.cfi_offset 14, -4
 1844 0002 82B0     		sub	sp, sp, #8
 1845              	.LCFI96:
 1846              		.cfi_def_cfa_offset 16
 1847 0004 00AF     		add	r7, sp, #0
 1848              	.LCFI97:
 1849              		.cfi_def_cfa_register 7
 1850 0006 7860     		str	r0, [r7, #4]
1211:.\Generated_Source\PSoC4/PWM.c ****     PWM_INTERRUPT_MASK_REG =  interruptMask;
 1851              		.loc 1 1211 0
 1852 0008 024B     		ldr	r3, .L144
 1853 000a 7A68     		ldr	r2, [r7, #4]
 1854 000c 1A60     		str	r2, [r3]
1212:.\Generated_Source\PSoC4/PWM.c **** }
 1855              		.loc 1 1212 0
 1856 000e BD46     		mov	sp, r7
 1857 0010 02B0     		add	sp, sp, #8
 1858              		@ sp needed for prologue
 1859 0012 80BD     		pop	{r7, pc}
 1860              	.L145:
 1861              		.align	2
 1862              	.L144:
ARM GAS  C:\Users\gagan\AppData\Local\Temp\ccVfL2Av.s 			page 55


 1863 0014 38010540 		.word	1074069816
 1864              		.cfi_endproc
 1865              	.LFE35:
 1866              		.size	PWM_SetInterruptMode, .-PWM_SetInterruptMode
 1867              		.section	.text.PWM_GetInterruptSourceMasked,"ax",%progbits
 1868              		.align	2
 1869              		.global	PWM_GetInterruptSourceMasked
 1870              		.code	16
 1871              		.thumb_func
 1872              		.type	PWM_GetInterruptSourceMasked, %function
 1873              	PWM_GetInterruptSourceMasked:
 1874              	.LFB36:
1213:.\Generated_Source\PSoC4/PWM.c **** 
1214:.\Generated_Source\PSoC4/PWM.c **** 
1215:.\Generated_Source\PSoC4/PWM.c **** /*******************************************************************************
1216:.\Generated_Source\PSoC4/PWM.c **** * Function Name: PWM_GetInterruptSourceMasked
1217:.\Generated_Source\PSoC4/PWM.c **** ********************************************************************************
1218:.\Generated_Source\PSoC4/PWM.c **** *
1219:.\Generated_Source\PSoC4/PWM.c **** * Summary:
1220:.\Generated_Source\PSoC4/PWM.c **** *  Gets the interrupt requests masked by the interrupt mask.
1221:.\Generated_Source\PSoC4/PWM.c **** *
1222:.\Generated_Source\PSoC4/PWM.c **** * Parameters:
1223:.\Generated_Source\PSoC4/PWM.c **** *   None
1224:.\Generated_Source\PSoC4/PWM.c **** *
1225:.\Generated_Source\PSoC4/PWM.c **** * Return:
1226:.\Generated_Source\PSoC4/PWM.c **** *  Masked interrupt source
1227:.\Generated_Source\PSoC4/PWM.c **** *   Values:
1228:.\Generated_Source\PSoC4/PWM.c **** *     - PWM_INTR_MASK_TC       - Terminal count mask
1229:.\Generated_Source\PSoC4/PWM.c **** *     - PWM_INTR_MASK_CC_MATCH - Compare count / capture mask
1230:.\Generated_Source\PSoC4/PWM.c **** *
1231:.\Generated_Source\PSoC4/PWM.c **** *******************************************************************************/
1232:.\Generated_Source\PSoC4/PWM.c **** uint32 PWM_GetInterruptSourceMasked(void)
1233:.\Generated_Source\PSoC4/PWM.c **** {
 1875              		.loc 1 1233 0
 1876              		.cfi_startproc
 1877 0000 80B5     		push	{r7, lr}
 1878              	.LCFI98:
 1879              		.cfi_def_cfa_offset 8
 1880              		.cfi_offset 7, -8
 1881              		.cfi_offset 14, -4
 1882 0002 00AF     		add	r7, sp, #0
 1883              	.LCFI99:
 1884              		.cfi_def_cfa_register 7
1234:.\Generated_Source\PSoC4/PWM.c ****     return (PWM_INTERRUPT_MASKED_REG);
 1885              		.loc 1 1234 0
 1886 0004 024B     		ldr	r3, .L148
 1887 0006 1B68     		ldr	r3, [r3]
1235:.\Generated_Source\PSoC4/PWM.c **** }
 1888              		.loc 1 1235 0
 1889 0008 181C     		mov	r0, r3
 1890 000a BD46     		mov	sp, r7
 1891              		@ sp needed for prologue
 1892 000c 80BD     		pop	{r7, pc}
 1893              	.L149:
 1894 000e C046     		.align	2
 1895              	.L148:
 1896 0010 3C010540 		.word	1074069820
ARM GAS  C:\Users\gagan\AppData\Local\Temp\ccVfL2Av.s 			page 56


 1897              		.cfi_endproc
 1898              	.LFE36:
 1899              		.size	PWM_GetInterruptSourceMasked, .-PWM_GetInterruptSourceMasked
 1900              		.section	.text.PWM_GetInterruptSource,"ax",%progbits
 1901              		.align	2
 1902              		.global	PWM_GetInterruptSource
 1903              		.code	16
 1904              		.thumb_func
 1905              		.type	PWM_GetInterruptSource, %function
 1906              	PWM_GetInterruptSource:
 1907              	.LFB37:
1236:.\Generated_Source\PSoC4/PWM.c **** 
1237:.\Generated_Source\PSoC4/PWM.c **** 
1238:.\Generated_Source\PSoC4/PWM.c **** /*******************************************************************************
1239:.\Generated_Source\PSoC4/PWM.c **** * Function Name: PWM_GetInterruptSource
1240:.\Generated_Source\PSoC4/PWM.c **** ********************************************************************************
1241:.\Generated_Source\PSoC4/PWM.c **** *
1242:.\Generated_Source\PSoC4/PWM.c **** * Summary:
1243:.\Generated_Source\PSoC4/PWM.c **** *  Gets the interrupt requests (without masking).
1244:.\Generated_Source\PSoC4/PWM.c **** *
1245:.\Generated_Source\PSoC4/PWM.c **** * Parameters:
1246:.\Generated_Source\PSoC4/PWM.c **** *  None
1247:.\Generated_Source\PSoC4/PWM.c **** *
1248:.\Generated_Source\PSoC4/PWM.c **** * Return:
1249:.\Generated_Source\PSoC4/PWM.c **** *  Interrupt request value
1250:.\Generated_Source\PSoC4/PWM.c **** *   Values:
1251:.\Generated_Source\PSoC4/PWM.c **** *     - PWM_INTR_MASK_TC       - Terminal count mask
1252:.\Generated_Source\PSoC4/PWM.c **** *     - PWM_INTR_MASK_CC_MATCH - Compare count / capture mask
1253:.\Generated_Source\PSoC4/PWM.c **** *
1254:.\Generated_Source\PSoC4/PWM.c **** *******************************************************************************/
1255:.\Generated_Source\PSoC4/PWM.c **** uint32 PWM_GetInterruptSource(void)
1256:.\Generated_Source\PSoC4/PWM.c **** {
 1908              		.loc 1 1256 0
 1909              		.cfi_startproc
 1910 0000 80B5     		push	{r7, lr}
 1911              	.LCFI100:
 1912              		.cfi_def_cfa_offset 8
 1913              		.cfi_offset 7, -8
 1914              		.cfi_offset 14, -4
 1915 0002 00AF     		add	r7, sp, #0
 1916              	.LCFI101:
 1917              		.cfi_def_cfa_register 7
1257:.\Generated_Source\PSoC4/PWM.c ****     return (PWM_INTERRUPT_REQ_REG);
 1918              		.loc 1 1257 0
 1919 0004 024B     		ldr	r3, .L152
 1920 0006 1B68     		ldr	r3, [r3]
1258:.\Generated_Source\PSoC4/PWM.c **** }
 1921              		.loc 1 1258 0
 1922 0008 181C     		mov	r0, r3
 1923 000a BD46     		mov	sp, r7
 1924              		@ sp needed for prologue
 1925 000c 80BD     		pop	{r7, pc}
 1926              	.L153:
 1927 000e C046     		.align	2
 1928              	.L152:
 1929 0010 30010540 		.word	1074069808
 1930              		.cfi_endproc
ARM GAS  C:\Users\gagan\AppData\Local\Temp\ccVfL2Av.s 			page 57


 1931              	.LFE37:
 1932              		.size	PWM_GetInterruptSource, .-PWM_GetInterruptSource
 1933              		.section	.text.PWM_ClearInterrupt,"ax",%progbits
 1934              		.align	2
 1935              		.global	PWM_ClearInterrupt
 1936              		.code	16
 1937              		.thumb_func
 1938              		.type	PWM_ClearInterrupt, %function
 1939              	PWM_ClearInterrupt:
 1940              	.LFB38:
1259:.\Generated_Source\PSoC4/PWM.c **** 
1260:.\Generated_Source\PSoC4/PWM.c **** 
1261:.\Generated_Source\PSoC4/PWM.c **** /*******************************************************************************
1262:.\Generated_Source\PSoC4/PWM.c **** * Function Name: PWM_ClearInterrupt
1263:.\Generated_Source\PSoC4/PWM.c **** ********************************************************************************
1264:.\Generated_Source\PSoC4/PWM.c **** *
1265:.\Generated_Source\PSoC4/PWM.c **** * Summary:
1266:.\Generated_Source\PSoC4/PWM.c **** *  Clears the interrupt request.
1267:.\Generated_Source\PSoC4/PWM.c **** *
1268:.\Generated_Source\PSoC4/PWM.c **** * Parameters:
1269:.\Generated_Source\PSoC4/PWM.c **** *   interruptMask: Mask of interrupts to clear
1270:.\Generated_Source\PSoC4/PWM.c **** *   Values:
1271:.\Generated_Source\PSoC4/PWM.c **** *     - PWM_INTR_MASK_TC       - Terminal count mask
1272:.\Generated_Source\PSoC4/PWM.c **** *     - PWM_INTR_MASK_CC_MATCH - Compare count / capture mask
1273:.\Generated_Source\PSoC4/PWM.c **** *
1274:.\Generated_Source\PSoC4/PWM.c **** * Return:
1275:.\Generated_Source\PSoC4/PWM.c **** *  None
1276:.\Generated_Source\PSoC4/PWM.c **** *
1277:.\Generated_Source\PSoC4/PWM.c **** *******************************************************************************/
1278:.\Generated_Source\PSoC4/PWM.c **** void PWM_ClearInterrupt(uint32 interruptMask)
1279:.\Generated_Source\PSoC4/PWM.c **** {
 1941              		.loc 1 1279 0
 1942              		.cfi_startproc
 1943 0000 80B5     		push	{r7, lr}
 1944              	.LCFI102:
 1945              		.cfi_def_cfa_offset 8
 1946              		.cfi_offset 7, -8
 1947              		.cfi_offset 14, -4
 1948 0002 82B0     		sub	sp, sp, #8
 1949              	.LCFI103:
 1950              		.cfi_def_cfa_offset 16
 1951 0004 00AF     		add	r7, sp, #0
 1952              	.LCFI104:
 1953              		.cfi_def_cfa_register 7
 1954 0006 7860     		str	r0, [r7, #4]
1280:.\Generated_Source\PSoC4/PWM.c ****     PWM_INTERRUPT_REQ_REG = interruptMask;
 1955              		.loc 1 1280 0
 1956 0008 024B     		ldr	r3, .L156
 1957 000a 7A68     		ldr	r2, [r7, #4]
 1958 000c 1A60     		str	r2, [r3]
1281:.\Generated_Source\PSoC4/PWM.c **** }
 1959              		.loc 1 1281 0
 1960 000e BD46     		mov	sp, r7
 1961 0010 02B0     		add	sp, sp, #8
 1962              		@ sp needed for prologue
 1963 0012 80BD     		pop	{r7, pc}
 1964              	.L157:
ARM GAS  C:\Users\gagan\AppData\Local\Temp\ccVfL2Av.s 			page 58


 1965              		.align	2
 1966              	.L156:
 1967 0014 30010540 		.word	1074069808
 1968              		.cfi_endproc
 1969              	.LFE38:
 1970              		.size	PWM_ClearInterrupt, .-PWM_ClearInterrupt
 1971              		.section	.text.PWM_SetInterrupt,"ax",%progbits
 1972              		.align	2
 1973              		.global	PWM_SetInterrupt
 1974              		.code	16
 1975              		.thumb_func
 1976              		.type	PWM_SetInterrupt, %function
 1977              	PWM_SetInterrupt:
 1978              	.LFB39:
1282:.\Generated_Source\PSoC4/PWM.c **** 
1283:.\Generated_Source\PSoC4/PWM.c **** 
1284:.\Generated_Source\PSoC4/PWM.c **** /*******************************************************************************
1285:.\Generated_Source\PSoC4/PWM.c **** * Function Name: PWM_SetInterrupt
1286:.\Generated_Source\PSoC4/PWM.c **** ********************************************************************************
1287:.\Generated_Source\PSoC4/PWM.c **** *
1288:.\Generated_Source\PSoC4/PWM.c **** * Summary:
1289:.\Generated_Source\PSoC4/PWM.c **** *  Sets a software interrupt request.
1290:.\Generated_Source\PSoC4/PWM.c **** *
1291:.\Generated_Source\PSoC4/PWM.c **** * Parameters:
1292:.\Generated_Source\PSoC4/PWM.c **** *   interruptMask: Mask of interrupts to set
1293:.\Generated_Source\PSoC4/PWM.c **** *   Values:
1294:.\Generated_Source\PSoC4/PWM.c **** *     - PWM_INTR_MASK_TC       - Terminal count mask
1295:.\Generated_Source\PSoC4/PWM.c **** *     - PWM_INTR_MASK_CC_MATCH - Compare count / capture mask
1296:.\Generated_Source\PSoC4/PWM.c **** *
1297:.\Generated_Source\PSoC4/PWM.c **** * Return:
1298:.\Generated_Source\PSoC4/PWM.c **** *  None
1299:.\Generated_Source\PSoC4/PWM.c **** *
1300:.\Generated_Source\PSoC4/PWM.c **** *******************************************************************************/
1301:.\Generated_Source\PSoC4/PWM.c **** void PWM_SetInterrupt(uint32 interruptMask)
1302:.\Generated_Source\PSoC4/PWM.c **** {
 1979              		.loc 1 1302 0
 1980              		.cfi_startproc
 1981 0000 80B5     		push	{r7, lr}
 1982              	.LCFI105:
 1983              		.cfi_def_cfa_offset 8
 1984              		.cfi_offset 7, -8
 1985              		.cfi_offset 14, -4
 1986 0002 82B0     		sub	sp, sp, #8
 1987              	.LCFI106:
 1988              		.cfi_def_cfa_offset 16
 1989 0004 00AF     		add	r7, sp, #0
 1990              	.LCFI107:
 1991              		.cfi_def_cfa_register 7
 1992 0006 7860     		str	r0, [r7, #4]
1303:.\Generated_Source\PSoC4/PWM.c ****     PWM_INTERRUPT_SET_REG = interruptMask;
 1993              		.loc 1 1303 0
 1994 0008 024B     		ldr	r3, .L160
 1995 000a 7A68     		ldr	r2, [r7, #4]
 1996 000c 1A60     		str	r2, [r3]
1304:.\Generated_Source\PSoC4/PWM.c **** }
 1997              		.loc 1 1304 0
 1998 000e BD46     		mov	sp, r7
ARM GAS  C:\Users\gagan\AppData\Local\Temp\ccVfL2Av.s 			page 59


 1999 0010 02B0     		add	sp, sp, #8
 2000              		@ sp needed for prologue
 2001 0012 80BD     		pop	{r7, pc}
 2002              	.L161:
 2003              		.align	2
 2004              	.L160:
 2005 0014 34010540 		.word	1074069812
 2006              		.cfi_endproc
 2007              	.LFE39:
 2008              		.size	PWM_SetInterrupt, .-PWM_SetInterrupt
 2009              		.text
 2010              	.Letext0: