ARM GAS  C:\Users\hp\AppData\Local\Temp\cc1ryjpb.s 			page 1


   1              		.syntax unified
   2              		.cpu cortex-m3
   3              		.fpu softvfp
   4              		.eabi_attribute 20, 1
   5              		.eabi_attribute 21, 1
   6              		.eabi_attribute 23, 3
   7              		.eabi_attribute 24, 1
   8              		.eabi_attribute 25, 1
   9              		.eabi_attribute 26, 1
  10              		.eabi_attribute 30, 6
  11              		.eabi_attribute 34, 1
  12              		.eabi_attribute 18, 4
  13              		.thumb
  14              		.file	"CapSense_Pins.c"
  15              		.text
  16              	.Ltext0:
  17              		.cfi_sections	.debug_frame
  18              		.section	.text.CapSense_SetAllSensorsDriveMode,"ax",%progbits
  19              		.align	2
  20              		.global	CapSense_SetAllSensorsDriveMode
  21              		.thumb
  22              		.thumb_func
  23              		.type	CapSense_SetAllSensorsDriveMode, %function
  24              	CapSense_SetAllSensorsDriveMode:
  25              	.LFB0:
  26              		.file 1 ".\\Generated_Source\\PSoC5\\CapSense_Pins.c"
   1:.\Generated_Source\PSoC5/CapSense_Pins.c **** /*******************************************************************************
   2:.\Generated_Source\PSoC5/CapSense_Pins.c **** * File Name: CapSense_Pins.c
   3:.\Generated_Source\PSoC5/CapSense_Pins.c **** * Version 3.50
   4:.\Generated_Source\PSoC5/CapSense_Pins.c **** *
   5:.\Generated_Source\PSoC5/CapSense_Pins.c **** * Description:
   6:.\Generated_Source\PSoC5/CapSense_Pins.c **** *  This file contains API to enable firmware control of a Pins component.
   7:.\Generated_Source\PSoC5/CapSense_Pins.c **** *
   8:.\Generated_Source\PSoC5/CapSense_Pins.c **** * Note:
   9:.\Generated_Source\PSoC5/CapSense_Pins.c **** *
  10:.\Generated_Source\PSoC5/CapSense_Pins.c **** ********************************************************************************
  11:.\Generated_Source\PSoC5/CapSense_Pins.c **** * Copyright 2008-2013, Cypress Semiconductor Corporation.  All rights reserved.
  12:.\Generated_Source\PSoC5/CapSense_Pins.c **** * You may use this file only in accordance with the license, terms, conditions,
  13:.\Generated_Source\PSoC5/CapSense_Pins.c **** * disclaimers, and limitations in the end user license agreement accompanying
  14:.\Generated_Source\PSoC5/CapSense_Pins.c **** * the software package with which this file was provided.
  15:.\Generated_Source\PSoC5/CapSense_Pins.c **** *******************************************************************************/
  16:.\Generated_Source\PSoC5/CapSense_Pins.c **** 
  17:.\Generated_Source\PSoC5/CapSense_Pins.c **** #include "CapSense_Pins.h"
  18:.\Generated_Source\PSoC5/CapSense_Pins.c **** 
  19:.\Generated_Source\PSoC5/CapSense_Pins.c **** 
  20:.\Generated_Source\PSoC5/CapSense_Pins.c **** /*******************************************************************************
  21:.\Generated_Source\PSoC5/CapSense_Pins.c **** * Function Name: CapSense_SetAllSensorsDriveMode
  22:.\Generated_Source\PSoC5/CapSense_Pins.c **** ********************************************************************************
  23:.\Generated_Source\PSoC5/CapSense_Pins.c **** *
  24:.\Generated_Source\PSoC5/CapSense_Pins.c **** * Summary:
  25:.\Generated_Source\PSoC5/CapSense_Pins.c **** *  Sets the drive mode for the all pins used by capacitive sensors within 
  26:.\Generated_Source\PSoC5/CapSense_Pins.c **** *  CapSense component.
  27:.\Generated_Source\PSoC5/CapSense_Pins.c **** * 
  28:.\Generated_Source\PSoC5/CapSense_Pins.c **** * Parameters:  
  29:.\Generated_Source\PSoC5/CapSense_Pins.c **** *  mode: Desired drive mode.
  30:.\Generated_Source\PSoC5/CapSense_Pins.c **** *
  31:.\Generated_Source\PSoC5/CapSense_Pins.c **** * Return: 
ARM GAS  C:\Users\hp\AppData\Local\Temp\cc1ryjpb.s 			page 2


  32:.\Generated_Source\PSoC5/CapSense_Pins.c **** *  None
  33:.\Generated_Source\PSoC5/CapSense_Pins.c **** *
  34:.\Generated_Source\PSoC5/CapSense_Pins.c **** *******************************************************************************/
  35:.\Generated_Source\PSoC5/CapSense_Pins.c **** void CapSense_SetAllSensorsDriveMode(uint8 mode) 
  36:.\Generated_Source\PSoC5/CapSense_Pins.c **** {
  27              		.loc 1 36 0
  28              		.cfi_startproc
  29              		@ args = 0, pretend = 0, frame = 8
  30              		@ frame_needed = 1, uses_anonymous_args = 0
  31              		@ link register save eliminated.
  32 0000 80B4     		push	{r7}
  33              		.cfi_def_cfa_offset 4
  34              		.cfi_offset 7, -4
  35 0002 83B0     		sub	sp, sp, #12
  36              		.cfi_def_cfa_offset 16
  37 0004 00AF     		add	r7, sp, #0
  38              		.cfi_def_cfa_register 7
  39 0006 0346     		mov	r3, r0
  40 0008 FB71     		strb	r3, [r7, #7]
  37:.\Generated_Source\PSoC5/CapSense_Pins.c ****     /* Set pins drive mode */
  38:.\Generated_Source\PSoC5/CapSense_Pins.c ****     CyPins_SetPinDriveMode(CapSense_PortCH0__LinearSlider0_e0__LS, mode);
  41              		.loc 1 38 0
  42 000a 424B     		ldr	r3, .L2
  43 000c 414A     		ldr	r2, .L2
  44 000e 1278     		ldrb	r2, [r2]
  45 0010 D2B2     		uxtb	r2, r2
  46 0012 D2B2     		uxtb	r2, r2
  47 0014 22F00E02 		bic	r2, r2, #14
  48 0018 D1B2     		uxtb	r1, r2
  49 001a FA79     		ldrb	r2, [r7, #7]	@ zero_extendqisi2
  50 001c 02F00E02 		and	r2, r2, #14
  51 0020 D2B2     		uxtb	r2, r2
  52 0022 0A43     		orrs	r2, r2, r1
  53 0024 D2B2     		uxtb	r2, r2
  54 0026 D2B2     		uxtb	r2, r2
  55 0028 1A70     		strb	r2, [r3]
  39:.\Generated_Source\PSoC5/CapSense_Pins.c ****     CyPins_SetPinDriveMode(CapSense_PortCH0__LinearSlider0_e1__LS, mode);
  56              		.loc 1 39 0
  57 002a 3B4B     		ldr	r3, .L2+4
  58 002c 3A4A     		ldr	r2, .L2+4
  59 002e 1278     		ldrb	r2, [r2]
  60 0030 D2B2     		uxtb	r2, r2
  61 0032 D2B2     		uxtb	r2, r2
  62 0034 22F00E02 		bic	r2, r2, #14
  63 0038 D1B2     		uxtb	r1, r2
  64 003a FA79     		ldrb	r2, [r7, #7]	@ zero_extendqisi2
  65 003c 02F00E02 		and	r2, r2, #14
  66 0040 D2B2     		uxtb	r2, r2
  67 0042 0A43     		orrs	r2, r2, r1
  68 0044 D2B2     		uxtb	r2, r2
  69 0046 D2B2     		uxtb	r2, r2
  70 0048 1A70     		strb	r2, [r3]
  40:.\Generated_Source\PSoC5/CapSense_Pins.c ****     CyPins_SetPinDriveMode(CapSense_PortCH0__LinearSlider0_e2__LS, mode);
  71              		.loc 1 40 0
  72 004a 344B     		ldr	r3, .L2+8
  73 004c 334A     		ldr	r2, .L2+8
  74 004e 1278     		ldrb	r2, [r2]
ARM GAS  C:\Users\hp\AppData\Local\Temp\cc1ryjpb.s 			page 3


  75 0050 D2B2     		uxtb	r2, r2
  76 0052 D2B2     		uxtb	r2, r2
  77 0054 22F00E02 		bic	r2, r2, #14
  78 0058 D1B2     		uxtb	r1, r2
  79 005a FA79     		ldrb	r2, [r7, #7]	@ zero_extendqisi2
  80 005c 02F00E02 		and	r2, r2, #14
  81 0060 D2B2     		uxtb	r2, r2
  82 0062 0A43     		orrs	r2, r2, r1
  83 0064 D2B2     		uxtb	r2, r2
  84 0066 D2B2     		uxtb	r2, r2
  85 0068 1A70     		strb	r2, [r3]
  41:.\Generated_Source\PSoC5/CapSense_Pins.c ****     CyPins_SetPinDriveMode(CapSense_PortCH0__LinearSlider0_e3__LS, mode);
  86              		.loc 1 41 0
  87 006a 2D4B     		ldr	r3, .L2+12
  88 006c 2C4A     		ldr	r2, .L2+12
  89 006e 1278     		ldrb	r2, [r2]
  90 0070 D2B2     		uxtb	r2, r2
  91 0072 D2B2     		uxtb	r2, r2
  92 0074 22F00E02 		bic	r2, r2, #14
  93 0078 D1B2     		uxtb	r1, r2
  94 007a FA79     		ldrb	r2, [r7, #7]	@ zero_extendqisi2
  95 007c 02F00E02 		and	r2, r2, #14
  96 0080 D2B2     		uxtb	r2, r2
  97 0082 0A43     		orrs	r2, r2, r1
  98 0084 D2B2     		uxtb	r2, r2
  99 0086 D2B2     		uxtb	r2, r2
 100 0088 1A70     		strb	r2, [r3]
  42:.\Generated_Source\PSoC5/CapSense_Pins.c ****     CyPins_SetPinDriveMode(CapSense_PortCH0__LinearSlider0_e4__LS, mode);
 101              		.loc 1 42 0
 102 008a 264B     		ldr	r3, .L2+16
 103 008c 254A     		ldr	r2, .L2+16
 104 008e 1278     		ldrb	r2, [r2]
 105 0090 D2B2     		uxtb	r2, r2
 106 0092 D2B2     		uxtb	r2, r2
 107 0094 22F00E02 		bic	r2, r2, #14
 108 0098 D1B2     		uxtb	r1, r2
 109 009a FA79     		ldrb	r2, [r7, #7]	@ zero_extendqisi2
 110 009c 02F00E02 		and	r2, r2, #14
 111 00a0 D2B2     		uxtb	r2, r2
 112 00a2 0A43     		orrs	r2, r2, r1
 113 00a4 D2B2     		uxtb	r2, r2
 114 00a6 D2B2     		uxtb	r2, r2
 115 00a8 1A70     		strb	r2, [r3]
  43:.\Generated_Source\PSoC5/CapSense_Pins.c ****     CyPins_SetPinDriveMode(CapSense_PortCH0__LinearSlider0_e5__LS, mode);
 116              		.loc 1 43 0
 117 00aa 1F4B     		ldr	r3, .L2+20
 118 00ac 1E4A     		ldr	r2, .L2+20
 119 00ae 1278     		ldrb	r2, [r2]
 120 00b0 D2B2     		uxtb	r2, r2
 121 00b2 D2B2     		uxtb	r2, r2
 122 00b4 22F00E02 		bic	r2, r2, #14
 123 00b8 D1B2     		uxtb	r1, r2
 124 00ba FA79     		ldrb	r2, [r7, #7]	@ zero_extendqisi2
 125 00bc 02F00E02 		and	r2, r2, #14
 126 00c0 D2B2     		uxtb	r2, r2
 127 00c2 0A43     		orrs	r2, r2, r1
 128 00c4 D2B2     		uxtb	r2, r2
ARM GAS  C:\Users\hp\AppData\Local\Temp\cc1ryjpb.s 			page 4


 129 00c6 D2B2     		uxtb	r2, r2
 130 00c8 1A70     		strb	r2, [r3]
  44:.\Generated_Source\PSoC5/CapSense_Pins.c ****     CyPins_SetPinDriveMode(CapSense_PortCH0__LinearSlider0_e6__LS, mode);
 131              		.loc 1 44 0
 132 00ca 184B     		ldr	r3, .L2+24
 133 00cc 174A     		ldr	r2, .L2+24
 134 00ce 1278     		ldrb	r2, [r2]
 135 00d0 D2B2     		uxtb	r2, r2
 136 00d2 D2B2     		uxtb	r2, r2
 137 00d4 22F00E02 		bic	r2, r2, #14
 138 00d8 D1B2     		uxtb	r1, r2
 139 00da FA79     		ldrb	r2, [r7, #7]	@ zero_extendqisi2
 140 00dc 02F00E02 		and	r2, r2, #14
 141 00e0 D2B2     		uxtb	r2, r2
 142 00e2 0A43     		orrs	r2, r2, r1
 143 00e4 D2B2     		uxtb	r2, r2
 144 00e6 D2B2     		uxtb	r2, r2
 145 00e8 1A70     		strb	r2, [r3]
  45:.\Generated_Source\PSoC5/CapSense_Pins.c ****     CyPins_SetPinDriveMode(CapSense_PortCH0__LinearSlider0_e7__LS, mode);
 146              		.loc 1 45 0
 147 00ea 114B     		ldr	r3, .L2+28
 148 00ec 104A     		ldr	r2, .L2+28
 149 00ee 1278     		ldrb	r2, [r2]
 150 00f0 D2B2     		uxtb	r2, r2
 151 00f2 D2B2     		uxtb	r2, r2
 152 00f4 22F00E02 		bic	r2, r2, #14
 153 00f8 D1B2     		uxtb	r1, r2
 154 00fa FA79     		ldrb	r2, [r7, #7]	@ zero_extendqisi2
 155 00fc 02F00E02 		and	r2, r2, #14
 156 0100 D2B2     		uxtb	r2, r2
 157 0102 0A43     		orrs	r2, r2, r1
 158 0104 D2B2     		uxtb	r2, r2
 159 0106 D2B2     		uxtb	r2, r2
 160 0108 1A70     		strb	r2, [r3]
  46:.\Generated_Source\PSoC5/CapSense_Pins.c **** 
  47:.\Generated_Source\PSoC5/CapSense_Pins.c **** }
 161              		.loc 1 47 0
 162 010a 0C37     		adds	r7, r7, #12
 163              		.cfi_def_cfa_offset 4
 164 010c BD46     		mov	sp, r7
 165              		.cfi_def_cfa_register 13
 166              		@ sp needed
 167 010e 5DF8047B 		ldr	r7, [sp], #4
 168              		.cfi_restore 7
 169              		.cfi_def_cfa_offset 0
 170 0112 7047     		bx	lr
 171              	.L3:
 172              		.align	2
 173              	.L2:
 174 0114 10500040 		.word	1073762320
 175 0118 11500040 		.word	1073762321
 176 011c 12500040 		.word	1073762322
 177 0120 13500040 		.word	1073762323
 178 0124 14500040 		.word	1073762324
 179 0128 15500040 		.word	1073762325
 180 012c 16500040 		.word	1073762326
 181 0130 17500040 		.word	1073762327
ARM GAS  C:\Users\hp\AppData\Local\Temp\cc1ryjpb.s 			page 5


 182              		.cfi_endproc
 183              	.LFE0:
 184              		.size	CapSense_SetAllSensorsDriveMode, .-CapSense_SetAllSensorsDriveMode
 185              		.section	.text.CapSense_SetAllCmodsDriveMode,"ax",%progbits
 186              		.align	2
 187              		.global	CapSense_SetAllCmodsDriveMode
 188              		.thumb
 189              		.thumb_func
 190              		.type	CapSense_SetAllCmodsDriveMode, %function
 191              	CapSense_SetAllCmodsDriveMode:
 192              	.LFB1:
  48:.\Generated_Source\PSoC5/CapSense_Pins.c **** 
  49:.\Generated_Source\PSoC5/CapSense_Pins.c **** 
  50:.\Generated_Source\PSoC5/CapSense_Pins.c **** 
  51:.\Generated_Source\PSoC5/CapSense_Pins.c **** /*******************************************************************************
  52:.\Generated_Source\PSoC5/CapSense_Pins.c **** * Function Name: CapSense_SetAllCmodsDriveMode
  53:.\Generated_Source\PSoC5/CapSense_Pins.c **** ********************************************************************************
  54:.\Generated_Source\PSoC5/CapSense_Pins.c **** *
  55:.\Generated_Source\PSoC5/CapSense_Pins.c **** * Summary:
  56:.\Generated_Source\PSoC5/CapSense_Pins.c **** *  Sets the drive mode for the all pins used by Cmod capacitors within CapSense 
  57:.\Generated_Source\PSoC5/CapSense_Pins.c **** *  component.
  58:.\Generated_Source\PSoC5/CapSense_Pins.c **** * 
  59:.\Generated_Source\PSoC5/CapSense_Pins.c **** * Parameters:  
  60:.\Generated_Source\PSoC5/CapSense_Pins.c **** *  mode: Desired drive mode.
  61:.\Generated_Source\PSoC5/CapSense_Pins.c **** *
  62:.\Generated_Source\PSoC5/CapSense_Pins.c **** * Return: 
  63:.\Generated_Source\PSoC5/CapSense_Pins.c **** *  None
  64:.\Generated_Source\PSoC5/CapSense_Pins.c **** *
  65:.\Generated_Source\PSoC5/CapSense_Pins.c **** *******************************************************************************/
  66:.\Generated_Source\PSoC5/CapSense_Pins.c **** void CapSense_SetAllCmodsDriveMode(uint8 mode) 
  67:.\Generated_Source\PSoC5/CapSense_Pins.c **** {
 193              		.loc 1 67 0
 194              		.cfi_startproc
 195              		@ args = 0, pretend = 0, frame = 8
 196              		@ frame_needed = 1, uses_anonymous_args = 0
 197              		@ link register save eliminated.
 198 0000 80B4     		push	{r7}
 199              		.cfi_def_cfa_offset 4
 200              		.cfi_offset 7, -4
 201 0002 83B0     		sub	sp, sp, #12
 202              		.cfi_def_cfa_offset 16
 203 0004 00AF     		add	r7, sp, #0
 204              		.cfi_def_cfa_register 7
 205 0006 0346     		mov	r3, r0
 206 0008 FB71     		strb	r3, [r7, #7]
  68:.\Generated_Source\PSoC5/CapSense_Pins.c ****    /* Set pins drive mode */
  69:.\Generated_Source\PSoC5/CapSense_Pins.c ****     CyPins_SetPinDriveMode(CapSense_CmodCH0_Cmod_CH0, mode);
 207              		.loc 1 69 0
 208 000a 0A4B     		ldr	r3, .L5
 209 000c 094A     		ldr	r2, .L5
 210 000e 1278     		ldrb	r2, [r2]
 211 0010 D2B2     		uxtb	r2, r2
 212 0012 D2B2     		uxtb	r2, r2
 213 0014 22F00E02 		bic	r2, r2, #14
 214 0018 D1B2     		uxtb	r1, r2
 215 001a FA79     		ldrb	r2, [r7, #7]	@ zero_extendqisi2
 216 001c 02F00E02 		and	r2, r2, #14
ARM GAS  C:\Users\hp\AppData\Local\Temp\cc1ryjpb.s 			page 6


 217 0020 D2B2     		uxtb	r2, r2
 218 0022 0A43     		orrs	r2, r2, r1
 219 0024 D2B2     		uxtb	r2, r2
 220 0026 D2B2     		uxtb	r2, r2
 221 0028 1A70     		strb	r2, [r3]
  70:.\Generated_Source\PSoC5/CapSense_Pins.c **** 
  71:.\Generated_Source\PSoC5/CapSense_Pins.c **** }
 222              		.loc 1 71 0
 223 002a 0C37     		adds	r7, r7, #12
 224              		.cfi_def_cfa_offset 4
 225 002c BD46     		mov	sp, r7
 226              		.cfi_def_cfa_register 13
 227              		@ sp needed
 228 002e 5DF8047B 		ldr	r7, [sp], #4
 229              		.cfi_restore 7
 230              		.cfi_def_cfa_offset 0
 231 0032 7047     		bx	lr
 232              	.L6:
 233              		.align	2
 234              	.L5:
 235 0034 20500040 		.word	1073762336
 236              		.cfi_endproc
 237              	.LFE1:
 238              		.size	CapSense_SetAllCmodsDriveMode, .-CapSense_SetAllCmodsDriveMode
 239              		.text
 240              	.Letext0:
 241              		.file 2 ".\\Generated_Source\\PSoC5\\cytypes.h"