ARM GAS  C:\Users\wbz\AppData\Local\Temp\ccA7BnXU.s 			page 1


   1              		.cpu cortex-m0
   2              		.fpu softvfp
   3              		.eabi_attribute 20, 1
   4              		.eabi_attribute 21, 1
   5              		.eabi_attribute 23, 3
   6              		.eabi_attribute 24, 1
   7              		.eabi_attribute 25, 1
   8              		.eabi_attribute 26, 1
   9              		.eabi_attribute 30, 6
  10              		.eabi_attribute 18, 4
  11              		.code	16
  12              		.file	"Comp.c"
  19 0000 06010000 		.text
  19      02005D00 
  19      00000201 
  19      FB0E0D00 
  19      01010101 
  20              	.Ltext0:
  21              		.cfi_sections	.debug_frame
  22              		.global	Comp_initVar
  23              		.bss
  24              		.align	2
  25              		.type	Comp_initVar, %object
  26              		.size	Comp_initVar, 4
  27              	Comp_initVar:
  28 0000 00000000 		.space	4
  29              		.section	.text.Comp_Init,"ax",%progbits
  30              		.align	2
  31              		.global	Comp_Init
  32              		.code	16
  33              		.thumb_func
  34              		.type	Comp_Init, %function
  35              	Comp_Init:
  36              	.LFB0:
  37              		.file 1 ".\\Generated_Source\\PSoC4\\Comp.c"
   1:.\Generated_Source\PSoC4/Comp.c **** /*******************************************************************************
   2:.\Generated_Source\PSoC4/Comp.c **** * File Name: Comp.c
   3:.\Generated_Source\PSoC4/Comp.c **** * Version 1.0
   4:.\Generated_Source\PSoC4/Comp.c **** *
   5:.\Generated_Source\PSoC4/Comp.c **** * Description:
   6:.\Generated_Source\PSoC4/Comp.c **** *  This file provides the source code to the API for the Comparator component
   7:.\Generated_Source\PSoC4/Comp.c **** *
   8:.\Generated_Source\PSoC4/Comp.c **** * Note:
   9:.\Generated_Source\PSoC4/Comp.c **** *  None
  10:.\Generated_Source\PSoC4/Comp.c **** *
  11:.\Generated_Source\PSoC4/Comp.c **** ********************************************************************************
  12:.\Generated_Source\PSoC4/Comp.c **** * Copyright 2013, Cypress Semiconductor Corporation.  All rights reserved.
  13:.\Generated_Source\PSoC4/Comp.c **** * You may use this file only in accordance with the license, terms, conditions,
  14:.\Generated_Source\PSoC4/Comp.c **** * disclaimers, and limitations in the end user license agreement accompanying
  15:.\Generated_Source\PSoC4/Comp.c **** * the software package with which this file was provided.
  16:.\Generated_Source\PSoC4/Comp.c **** *******************************************************************************/
ARM GAS  C:\Users\wbz\AppData\Local\Temp\ccA7BnXU.s 			page 2


  17:.\Generated_Source\PSoC4/Comp.c **** 
  18:.\Generated_Source\PSoC4/Comp.c **** #include "Comp.h"
  19:.\Generated_Source\PSoC4/Comp.c **** 
  20:.\Generated_Source\PSoC4/Comp.c **** 
  21:.\Generated_Source\PSoC4/Comp.c **** uint32 Comp_initVar = 0u;
  22:.\Generated_Source\PSoC4/Comp.c **** 
  23:.\Generated_Source\PSoC4/Comp.c **** 
  24:.\Generated_Source\PSoC4/Comp.c **** /*******************************************************************************
  25:.\Generated_Source\PSoC4/Comp.c **** * Function Name: Comp_Init
  26:.\Generated_Source\PSoC4/Comp.c **** ********************************************************************************
  27:.\Generated_Source\PSoC4/Comp.c **** *
  28:.\Generated_Source\PSoC4/Comp.c **** * Summary:
  29:.\Generated_Source\PSoC4/Comp.c **** *  Initialize to the schematic state
  30:.\Generated_Source\PSoC4/Comp.c **** *
  31:.\Generated_Source\PSoC4/Comp.c **** * Parameters:
  32:.\Generated_Source\PSoC4/Comp.c **** *  None
  33:.\Generated_Source\PSoC4/Comp.c **** *
  34:.\Generated_Source\PSoC4/Comp.c **** * Return:
  35:.\Generated_Source\PSoC4/Comp.c **** *  None
  36:.\Generated_Source\PSoC4/Comp.c **** *
  37:.\Generated_Source\PSoC4/Comp.c **** *******************************************************************************/
  38:.\Generated_Source\PSoC4/Comp.c **** void Comp_Init(void)
  39:.\Generated_Source\PSoC4/Comp.c **** {
  38              		.loc 1 39 0
  39              		.cfi_startproc
  40 0000 80B5     		push	{r7, lr}
  41              	.LCFI0:
  42              		.cfi_def_cfa_offset 8
  43              		.cfi_offset 7, -8
  44              		.cfi_offset 14, -4
  45 0002 00AF     		add	r7, sp, #0
  46              	.LCFI1:
  47              		.cfi_def_cfa_register 7
  40:.\Generated_Source\PSoC4/Comp.c ****     /* Enable comparator block */
  41:.\Generated_Source\PSoC4/Comp.c ****     Comp_CTB_CTRL_REG = ((uint32)1u << Comp_OA_CTB_EN_SHIFT);
  48              		.loc 1 41 0
  49 0004 044A     		ldr	r2, .L3
  50 0006 8023     		mov	r3, #128
  51 0008 1B06     		lsl	r3, r3, #24
  52 000a 1360     		str	r3, [r2]
  42:.\Generated_Source\PSoC4/Comp.c ****     
  43:.\Generated_Source\PSoC4/Comp.c ****     Comp_OA_CTRL_REG  = ((uint32)1u << Comp_OA_COMP_EN_SHIFT) | 
  53              		.loc 1 43 0
  54 000c 034B     		ldr	r3, .L3+4
  55 000e 5022     		mov	r2, #80
  56 0010 1A60     		str	r2, [r3]
  44:.\Generated_Source\PSoC4/Comp.c ****         ((uint32)1u << Comp_OA_BYPASS_SHIFT);
  45:.\Generated_Source\PSoC4/Comp.c **** 
  46:.\Generated_Source\PSoC4/Comp.c ****     /* Set selected Hysteresis option */
  47:.\Generated_Source\PSoC4/Comp.c ****     #if(0 != Comp_HYSTERESIS)
  48:.\Generated_Source\PSoC4/Comp.c ****         Comp_OA_CTRL_REG |= ((uint32) 1u << Comp_OA_HYST_EN_SHIFT);
  49:.\Generated_Source\PSoC4/Comp.c ****     #endif /* 0 != Comp_HYSTERESIS */
  50:.\Generated_Source\PSoC4/Comp.c **** }
  57              		.loc 1 50 0
  58 0012 BD46     		mov	sp, r7
  59              		@ sp needed for prologue
  60 0014 80BD     		pop	{r7, pc}
ARM GAS  C:\Users\wbz\AppData\Local\Temp\ccA7BnXU.s 			page 3


  61              	.L4:
  62 0016 C046     		.align	2
  63              	.L3:
  64 0018 00001040 		.word	1074790400
  65 001c 04001040 		.word	1074790404
  66              		.cfi_endproc
  67              	.LFE0:
  68              		.size	Comp_Init, .-Comp_Init
  69              		.section	.text.Comp_Enable,"ax",%progbits
  70              		.align	2
  71              		.global	Comp_Enable
  72              		.code	16
  73              		.thumb_func
  74              		.type	Comp_Enable, %function
  75              	Comp_Enable:
  76              	.LFB1:
  51:.\Generated_Source\PSoC4/Comp.c **** 
  52:.\Generated_Source\PSoC4/Comp.c **** 
  53:.\Generated_Source\PSoC4/Comp.c **** /*******************************************************************************
  54:.\Generated_Source\PSoC4/Comp.c **** * Function Name: Comp_Enable
  55:.\Generated_Source\PSoC4/Comp.c **** ********************************************************************************
  56:.\Generated_Source\PSoC4/Comp.c **** *
  57:.\Generated_Source\PSoC4/Comp.c **** * Summary:
  58:.\Generated_Source\PSoC4/Comp.c **** *  Enable the Comparator
  59:.\Generated_Source\PSoC4/Comp.c **** *
  60:.\Generated_Source\PSoC4/Comp.c **** * Parameters:
  61:.\Generated_Source\PSoC4/Comp.c **** *  None
  62:.\Generated_Source\PSoC4/Comp.c **** *
  63:.\Generated_Source\PSoC4/Comp.c **** * Return:
  64:.\Generated_Source\PSoC4/Comp.c **** *  None
  65:.\Generated_Source\PSoC4/Comp.c **** *
  66:.\Generated_Source\PSoC4/Comp.c **** *******************************************************************************/
  67:.\Generated_Source\PSoC4/Comp.c **** void Comp_Enable(void)
  68:.\Generated_Source\PSoC4/Comp.c **** {
  77              		.loc 1 68 0
  78              		.cfi_startproc
  79 0000 80B5     		push	{r7, lr}
  80              	.LCFI2:
  81              		.cfi_def_cfa_offset 8
  82              		.cfi_offset 7, -8
  83              		.cfi_offset 14, -4
  84 0002 00AF     		add	r7, sp, #0
  85              	.LCFI3:
  86              		.cfi_def_cfa_register 7
  69:.\Generated_Source\PSoC4/Comp.c ****     Comp_OA_CTRL_REG &= (~(uint32)(Comp_OA_PWR_MODE_HIGH));
  87              		.loc 1 69 0
  88 0004 064B     		ldr	r3, .L7
  89 0006 064A     		ldr	r2, .L7
  90 0008 1268     		ldr	r2, [r2]
  91 000a 0321     		mov	r1, #3
  92 000c 8A43     		bic	r2, r2, r1
  93 000e 1A60     		str	r2, [r3]
  70:.\Generated_Source\PSoC4/Comp.c ****     Comp_OA_CTRL_REG |= Comp_POWER | ((uint32) 1u << Comp_OA_PUMP_EN_SHIFT);
  94              		.loc 1 70 0
  95 0010 034B     		ldr	r3, .L7
  96 0012 034A     		ldr	r2, .L7
  97 0014 1168     		ldr	r1, [r2]
ARM GAS  C:\Users\wbz\AppData\Local\Temp\ccA7BnXU.s 			page 4


  98 0016 034A     		ldr	r2, .L7+4
  99 0018 0A43     		orr	r2, r2, r1
 100 001a 1A60     		str	r2, [r3]
  71:.\Generated_Source\PSoC4/Comp.c **** }
 101              		.loc 1 71 0
 102 001c BD46     		mov	sp, r7
 103              		@ sp needed for prologue
 104 001e 80BD     		pop	{r7, pc}
 105              	.L8:
 106              		.align	2
 107              	.L7:
 108 0020 04001040 		.word	1074790404
 109 0024 03080000 		.word	2051
 110              		.cfi_endproc
 111              	.LFE1:
 112              		.size	Comp_Enable, .-Comp_Enable
 113              		.section	.text.Comp_Start,"ax",%progbits
 114              		.align	2
 115              		.global	Comp_Start
 116              		.code	16
 117              		.thumb_func
 118              		.type	Comp_Start, %function
 119              	Comp_Start:
 120              	.LFB2:
  72:.\Generated_Source\PSoC4/Comp.c **** 
  73:.\Generated_Source\PSoC4/Comp.c **** 
  74:.\Generated_Source\PSoC4/Comp.c **** /*******************************************************************************
  75:.\Generated_Source\PSoC4/Comp.c **** * Function Name: Comp_Start
  76:.\Generated_Source\PSoC4/Comp.c **** ********************************************************************************
  77:.\Generated_Source\PSoC4/Comp.c **** *
  78:.\Generated_Source\PSoC4/Comp.c **** * Summary:
  79:.\Generated_Source\PSoC4/Comp.c **** *  The start function initializes the Analog Comparator with the default values.
  80:.\Generated_Source\PSoC4/Comp.c **** *
  81:.\Generated_Source\PSoC4/Comp.c **** * Parameters:
  82:.\Generated_Source\PSoC4/Comp.c **** *  None
  83:.\Generated_Source\PSoC4/Comp.c **** *
  84:.\Generated_Source\PSoC4/Comp.c **** * Return:
  85:.\Generated_Source\PSoC4/Comp.c **** *  None
  86:.\Generated_Source\PSoC4/Comp.c **** *
  87:.\Generated_Source\PSoC4/Comp.c **** * Global variables:
  88:.\Generated_Source\PSoC4/Comp.c **** *  Comp_initVar: Is modified when this function is called for the
  89:.\Generated_Source\PSoC4/Comp.c **** *   first time. Is used to ensure that initialization happens only once.
  90:.\Generated_Source\PSoC4/Comp.c **** *
  91:.\Generated_Source\PSoC4/Comp.c **** *******************************************************************************/
  92:.\Generated_Source\PSoC4/Comp.c **** void Comp_Start(void)
  93:.\Generated_Source\PSoC4/Comp.c **** {
 121              		.loc 1 93 0
 122              		.cfi_startproc
 123 0000 80B5     		push	{r7, lr}
 124              	.LCFI4:
 125              		.cfi_def_cfa_offset 8
 126              		.cfi_offset 7, -8
 127              		.cfi_offset 14, -4
 128 0002 00AF     		add	r7, sp, #0
 129              	.LCFI5:
 130              		.cfi_def_cfa_register 7
  94:.\Generated_Source\PSoC4/Comp.c ****     if(Comp_initVar == 0u)
ARM GAS  C:\Users\wbz\AppData\Local\Temp\ccA7BnXU.s 			page 5


 131              		.loc 1 94 0
 132 0004 064B     		ldr	r3, .L12
 133 0006 1B68     		ldr	r3, [r3]
 134 0008 002B     		cmp	r3, #0
 135 000a 04D1     		bne	.L10
  95:.\Generated_Source\PSoC4/Comp.c ****     {
  96:.\Generated_Source\PSoC4/Comp.c ****         Comp_initVar = 1u;
 136              		.loc 1 96 0
 137 000c 044B     		ldr	r3, .L12
 138 000e 0122     		mov	r2, #1
 139 0010 1A60     		str	r2, [r3]
  97:.\Generated_Source\PSoC4/Comp.c ****         Comp_Init();
 140              		.loc 1 97 0
 141 0012 FFF7FEFF 		bl	Comp_Init
 142              	.L10:
  98:.\Generated_Source\PSoC4/Comp.c ****     }
  99:.\Generated_Source\PSoC4/Comp.c ****     Comp_Enable();
 143              		.loc 1 99 0
 144 0016 FFF7FEFF 		bl	Comp_Enable
 100:.\Generated_Source\PSoC4/Comp.c **** }
 145              		.loc 1 100 0
 146 001a BD46     		mov	sp, r7
 147              		@ sp needed for prologue
 148 001c 80BD     		pop	{r7, pc}
 149              	.L13:
 150 001e C046     		.align	2
 151              	.L12:
 152 0020 00000000 		.word	Comp_initVar
 153              		.cfi_endproc
 154              	.LFE2:
 155              		.size	Comp_Start, .-Comp_Start
 156              		.section	.text.Comp_Stop,"ax",%progbits
 157              		.align	2
 158              		.global	Comp_Stop
 159              		.code	16
 160              		.thumb_func
 161              		.type	Comp_Stop, %function
 162              	Comp_Stop:
 163              	.LFB3:
 101:.\Generated_Source\PSoC4/Comp.c **** 
 102:.\Generated_Source\PSoC4/Comp.c **** 
 103:.\Generated_Source\PSoC4/Comp.c **** /*******************************************************************************
 104:.\Generated_Source\PSoC4/Comp.c **** * Function Name: Comp_Stop
 105:.\Generated_Source\PSoC4/Comp.c **** ********************************************************************************
 106:.\Generated_Source\PSoC4/Comp.c **** *
 107:.\Generated_Source\PSoC4/Comp.c **** * Summary:
 108:.\Generated_Source\PSoC4/Comp.c **** *  Powers down amplifier to lowest power state.
 109:.\Generated_Source\PSoC4/Comp.c **** *
 110:.\Generated_Source\PSoC4/Comp.c **** * Parameters:
 111:.\Generated_Source\PSoC4/Comp.c **** *  None
 112:.\Generated_Source\PSoC4/Comp.c **** *
 113:.\Generated_Source\PSoC4/Comp.c **** * Return:
 114:.\Generated_Source\PSoC4/Comp.c **** *  None
 115:.\Generated_Source\PSoC4/Comp.c **** *
 116:.\Generated_Source\PSoC4/Comp.c **** *******************************************************************************/
 117:.\Generated_Source\PSoC4/Comp.c **** void Comp_Stop(void)
 118:.\Generated_Source\PSoC4/Comp.c **** {
ARM GAS  C:\Users\wbz\AppData\Local\Temp\ccA7BnXU.s 			page 6


 164              		.loc 1 118 0
 165              		.cfi_startproc
 166 0000 80B5     		push	{r7, lr}
 167              	.LCFI6:
 168              		.cfi_def_cfa_offset 8
 169              		.cfi_offset 7, -8
 170              		.cfi_offset 14, -4
 171 0002 00AF     		add	r7, sp, #0
 172              	.LCFI7:
 173              		.cfi_def_cfa_register 7
 119:.\Generated_Source\PSoC4/Comp.c ****     Comp_OA_CTRL_REG &= (~(uint32)(Comp_OA_PWR_MODE_HIGH | 
 174              		.loc 1 119 0
 175 0004 034B     		ldr	r3, .L16
 176 0006 034A     		ldr	r2, .L16
 177 0008 1168     		ldr	r1, [r2]
 178 000a 034A     		ldr	r2, .L16+4
 179 000c 0A40     		and	r2, r2, r1
 180 000e 1A60     		str	r2, [r3]
 120:.\Generated_Source\PSoC4/Comp.c ****         ((uint32) 1u << Comp_OA_PUMP_EN_SHIFT)));
 121:.\Generated_Source\PSoC4/Comp.c **** }
 181              		.loc 1 121 0
 182 0010 BD46     		mov	sp, r7
 183              		@ sp needed for prologue
 184 0012 80BD     		pop	{r7, pc}
 185              	.L17:
 186              		.align	2
 187              	.L16:
 188 0014 04001040 		.word	1074790404
 189 0018 FCF7FFFF 		.word	-2052
 190              		.cfi_endproc
 191              	.LFE3:
 192              		.size	Comp_Stop, .-Comp_Stop
 193              		.section	.text.Comp_SetSpeed,"ax",%progbits
 194              		.align	2
 195              		.global	Comp_SetSpeed
 196              		.code	16
 197              		.thumb_func
 198              		.type	Comp_SetSpeed, %function
 199              	Comp_SetSpeed:
 200              	.LFB4:
 122:.\Generated_Source\PSoC4/Comp.c **** 
 123:.\Generated_Source\PSoC4/Comp.c **** 
 124:.\Generated_Source\PSoC4/Comp.c **** /*******************************************************************************
 125:.\Generated_Source\PSoC4/Comp.c **** * Function Name: Comp_SetSpeed
 126:.\Generated_Source\PSoC4/Comp.c **** ********************************************************************************
 127:.\Generated_Source\PSoC4/Comp.c **** *
 128:.\Generated_Source\PSoC4/Comp.c **** * Summary:
 129:.\Generated_Source\PSoC4/Comp.c **** *  This function sets the speed of the Analog Comparator. The faster the speed
 130:.\Generated_Source\PSoC4/Comp.c **** *  the more power that is used.
 131:.\Generated_Source\PSoC4/Comp.c **** *
 132:.\Generated_Source\PSoC4/Comp.c **** * Parameters:
 133:.\Generated_Source\PSoC4/Comp.c **** *  speed: (uint32) Sets operation mode of Comparator
 134:.\Generated_Source\PSoC4/Comp.c **** *
 135:.\Generated_Source\PSoC4/Comp.c **** * Return:
 136:.\Generated_Source\PSoC4/Comp.c **** *  None
 137:.\Generated_Source\PSoC4/Comp.c **** *
 138:.\Generated_Source\PSoC4/Comp.c **** *******************************************************************************/
ARM GAS  C:\Users\wbz\AppData\Local\Temp\ccA7BnXU.s 			page 7


 139:.\Generated_Source\PSoC4/Comp.c **** void Comp_SetSpeed(uint32 speed)
 140:.\Generated_Source\PSoC4/Comp.c **** {
 201              		.loc 1 140 0
 202              		.cfi_startproc
 203 0000 80B5     		push	{r7, lr}
 204              	.LCFI8:
 205              		.cfi_def_cfa_offset 8
 206              		.cfi_offset 7, -8
 207              		.cfi_offset 14, -4
 208 0002 82B0     		sub	sp, sp, #8
 209              	.LCFI9:
 210              		.cfi_def_cfa_offset 16
 211 0004 00AF     		add	r7, sp, #0
 212              	.LCFI10:
 213              		.cfi_def_cfa_register 7
 214 0006 7860     		str	r0, [r7, #4]
 141:.\Generated_Source\PSoC4/Comp.c ****     Comp_OA_CTRL_REG &= (~(uint32)Comp_OA_PWR_MODE_MASK);
 215              		.loc 1 141 0
 216 0008 084B     		ldr	r3, .L20
 217 000a 084A     		ldr	r2, .L20
 218 000c 1268     		ldr	r2, [r2]
 219 000e 0321     		mov	r1, #3
 220 0010 8A43     		bic	r2, r2, r1
 221 0012 1A60     		str	r2, [r3]
 142:.\Generated_Source\PSoC4/Comp.c ****     Comp_OA_CTRL_REG |= (speed & Comp_OA_PWR_MODE_MASK);
 222              		.loc 1 142 0
 223 0014 054B     		ldr	r3, .L20
 224 0016 054A     		ldr	r2, .L20
 225 0018 1168     		ldr	r1, [r2]
 226 001a 7868     		ldr	r0, [r7, #4]
 227 001c 0322     		mov	r2, #3
 228 001e 0240     		and	r2, r2, r0
 229 0020 0A43     		orr	r2, r2, r1
 230 0022 1A60     		str	r2, [r3]
 143:.\Generated_Source\PSoC4/Comp.c **** }
 231              		.loc 1 143 0
 232 0024 BD46     		mov	sp, r7
 233 0026 02B0     		add	sp, sp, #8
 234              		@ sp needed for prologue
 235 0028 80BD     		pop	{r7, pc}
 236              	.L21:
 237 002a C046     		.align	2
 238              	.L20:
 239 002c 04001040 		.word	1074790404
 240              		.cfi_endproc
 241              	.LFE4:
 242              		.size	Comp_SetSpeed, .-Comp_SetSpeed
 243              		.section	.text.Comp_ZeroCal,"ax",%progbits
 244              		.align	2
 245              		.global	Comp_ZeroCal
 246              		.code	16
 247              		.thumb_func
 248              		.type	Comp_ZeroCal, %function
 249              	Comp_ZeroCal:
 250              	.LFB5:
 144:.\Generated_Source\PSoC4/Comp.c **** 
 145:.\Generated_Source\PSoC4/Comp.c **** 
ARM GAS  C:\Users\wbz\AppData\Local\Temp\ccA7BnXU.s 			page 8


 146:.\Generated_Source\PSoC4/Comp.c **** /*******************************************************************************
 147:.\Generated_Source\PSoC4/Comp.c **** * Function Name: Comp_ZeroCal
 148:.\Generated_Source\PSoC4/Comp.c **** ********************************************************************************
 149:.\Generated_Source\PSoC4/Comp.c **** *
 150:.\Generated_Source\PSoC4/Comp.c **** * Summary:
 151:.\Generated_Source\PSoC4/Comp.c **** *  This function calibrates the offset of the Analog Comparator.
 152:.\Generated_Source\PSoC4/Comp.c **** *  Before calling this API Vplus input of the component should be disconnected
 153:.\Generated_Source\PSoC4/Comp.c **** *  from source and connected to Vminus terminal of the component.
 154:.\Generated_Source\PSoC4/Comp.c **** *  Use analog multiplexer component for it.
 155:.\Generated_Source\PSoC4/Comp.c **** *
 156:.\Generated_Source\PSoC4/Comp.c **** * Parameters:
 157:.\Generated_Source\PSoC4/Comp.c **** *  None
 158:.\Generated_Source\PSoC4/Comp.c **** *
 159:.\Generated_Source\PSoC4/Comp.c **** * Return:
 160:.\Generated_Source\PSoC4/Comp.c **** *  (uint32)  value written in trim register when calibration complete.
 161:.\Generated_Source\PSoC4/Comp.c **** *
 162:.\Generated_Source\PSoC4/Comp.c **** *
 163:.\Generated_Source\PSoC4/Comp.c **** * Side Effects:
 164:.\Generated_Source\PSoC4/Comp.c **** *  Routine clears analog routing associated with the comparator positive input.
 165:.\Generated_Source\PSoC4/Comp.c **** *  This may affect routing of signals from other components that are connected
 166:.\Generated_Source\PSoC4/Comp.c **** *  to the positive input of the comparator.
 167:.\Generated_Source\PSoC4/Comp.c **** *
 168:.\Generated_Source\PSoC4/Comp.c **** *******************************************************************************/
 169:.\Generated_Source\PSoC4/Comp.c **** uint32 Comp_ZeroCal(void)
 170:.\Generated_Source\PSoC4/Comp.c **** {
 251              		.loc 1 170 0
 252              		.cfi_startproc
 253 0000 80B5     		push	{r7, lr}
 254              	.LCFI11:
 255              		.cfi_def_cfa_offset 8
 256              		.cfi_offset 7, -8
 257              		.cfi_offset 14, -4
 258 0002 82B0     		sub	sp, sp, #8
 259              	.LCFI12:
 260              		.cfi_def_cfa_offset 16
 261 0004 00AF     		add	r7, sp, #0
 262              	.LCFI13:
 263              		.cfi_def_cfa_register 7
 171:.\Generated_Source\PSoC4/Comp.c ****     uint32 cmpOut;
 172:.\Generated_Source\PSoC4/Comp.c ****     uint32 i;
 173:.\Generated_Source\PSoC4/Comp.c ****     
 174:.\Generated_Source\PSoC4/Comp.c ****     /* Clear trim registers before trimming */
 175:.\Generated_Source\PSoC4/Comp.c ****     Comp_OA_OFFSET_TRIM_REG       = 0u;
 264              		.loc 1 175 0
 265 0006 184B     		ldr	r3, .L30
 266 0008 0022     		mov	r2, #0
 267 000a 1A60     		str	r2, [r3]
 176:.\Generated_Source\PSoC4/Comp.c ****     Comp_OA_SLOPE_OFFSET_TRIM_REG = 0u;
 268              		.loc 1 176 0
 269 000c 174B     		ldr	r3, .L30+4
 270 000e 0022     		mov	r2, #0
 271 0010 1A60     		str	r2, [r3]
 177:.\Generated_Source\PSoC4/Comp.c ****     
 178:.\Generated_Source\PSoC4/Comp.c ****     /* Checking the comparator's output state */
 179:.\Generated_Source\PSoC4/Comp.c ****     cmpOut = Comp_GetCompare();
 272              		.loc 1 179 0
 273 0012 FFF7FEFF 		bl	Comp_GetCompare
ARM GAS  C:\Users\wbz\AppData\Local\Temp\ccA7BnXU.s 			page 9


 274 0016 031C     		mov	r3, r0
 275 0018 3B60     		str	r3, [r7]
 180:.\Generated_Source\PSoC4/Comp.c ****     
 181:.\Generated_Source\PSoC4/Comp.c ****     /* 
 182:.\Generated_Source\PSoC4/Comp.c ****      Connect the outputs of trim IDACs to the positive
 183:.\Generated_Source\PSoC4/Comp.c ****      output leg of the folded cascode 
 184:.\Generated_Source\PSoC4/Comp.c ****      */
 185:.\Generated_Source\PSoC4/Comp.c ****     if(cmpOut == 0u)
 276              		.loc 1 185 0
 277 001a 3B68     		ldr	r3, [r7]
 278 001c 002B     		cmp	r3, #0
 279 001e 05D1     		bne	.L23
 186:.\Generated_Source\PSoC4/Comp.c ****     {
 187:.\Generated_Source\PSoC4/Comp.c ****         Comp_OA_OFFSET_TRIM_REG       = ((uint32) 1u << (uint32)Comp_COMP_TRIM_SIGN_SHIFT);
 280              		.loc 1 187 0
 281 0020 114B     		ldr	r3, .L30
 282 0022 2022     		mov	r2, #32
 283 0024 1A60     		str	r2, [r3]
 188:.\Generated_Source\PSoC4/Comp.c ****         Comp_OA_SLOPE_OFFSET_TRIM_REG = ((uint32) 1u << (uint32)Comp_COMP_TRIM_SIGN_SHIFT);
 284              		.loc 1 188 0
 285 0026 114B     		ldr	r3, .L30+4
 286 0028 2022     		mov	r2, #32
 287 002a 1A60     		str	r2, [r3]
 288              	.L23:
 189:.\Generated_Source\PSoC4/Comp.c ****     }
 190:.\Generated_Source\PSoC4/Comp.c ****     else
 191:.\Generated_Source\PSoC4/Comp.c ****     {
 192:.\Generated_Source\PSoC4/Comp.c ****         /* 
 193:.\Generated_Source\PSoC4/Comp.c ****         Do nothing. Outputs of trim IDACs are connected 
 194:.\Generated_Source\PSoC4/Comp.c ****         to the negative output leg of the folded cascode 
 195:.\Generated_Source\PSoC4/Comp.c ****          */
 196:.\Generated_Source\PSoC4/Comp.c ****     }
 197:.\Generated_Source\PSoC4/Comp.c ****     
 198:.\Generated_Source\PSoC4/Comp.c ****     /* 
 199:.\Generated_Source\PSoC4/Comp.c ****      Searching the offset trim setting, 
 200:.\Generated_Source\PSoC4/Comp.c ****      that flips the output of the comparator 
 201:.\Generated_Source\PSoC4/Comp.c ****      */
 202:.\Generated_Source\PSoC4/Comp.c ****     for(i = 0u; i < Comp_COMP_TRIM_MAX_VALUE; i++)
 289              		.loc 1 202 0
 290 002c 0023     		mov	r3, #0
 291 002e 7B60     		str	r3, [r7, #4]
 292 0030 0FE0     		b	.L24
 293              	.L27:
 203:.\Generated_Source\PSoC4/Comp.c ****     {
 204:.\Generated_Source\PSoC4/Comp.c ****         Comp_OA_OFFSET_TRIM_REG++;
 294              		.loc 1 204 0
 295 0032 0D4B     		ldr	r3, .L30
 296 0034 1A68     		ldr	r2, [r3]
 297 0036 0132     		add	r2, r2, #1
 298 0038 1A60     		str	r2, [r3]
 205:.\Generated_Source\PSoC4/Comp.c ****         CyDelayUs(10u);
 299              		.loc 1 205 0
 300 003a 0A20     		mov	r0, #10
 301 003c FFF7FEFF 		bl	CyDelayUs
 206:.\Generated_Source\PSoC4/Comp.c ****         if(cmpOut != Comp_GetCompare())
 302              		.loc 1 206 0
 303 0040 FFF7FEFF 		bl	Comp_GetCompare
ARM GAS  C:\Users\wbz\AppData\Local\Temp\ccA7BnXU.s 			page 10


 304 0044 021C     		mov	r2, r0
 305 0046 3B68     		ldr	r3, [r7]
 306 0048 9A42     		cmp	r2, r3
 307 004a 06D1     		bne	.L29
 308              	.L25:
 309              		.loc 1 202 0
 310 004c 7B68     		ldr	r3, [r7, #4]
 311 004e 0133     		add	r3, r3, #1
 312 0050 7B60     		str	r3, [r7, #4]
 313              	.L24:
 314 0052 7B68     		ldr	r3, [r7, #4]
 315 0054 1F2B     		cmp	r3, #31
 316 0056 ECD9     		bls	.L27
 317 0058 00E0     		b	.L26
 318              	.L29:
 207:.\Generated_Source\PSoC4/Comp.c ****         {
 208:.\Generated_Source\PSoC4/Comp.c ****             break;
 319              		.loc 1 208 0
 320 005a C046     		mov	r8, r8
 321              	.L26:
 209:.\Generated_Source\PSoC4/Comp.c ****         }
 210:.\Generated_Source\PSoC4/Comp.c ****     }
 211:.\Generated_Source\PSoC4/Comp.c ****     
 212:.\Generated_Source\PSoC4/Comp.c ****     /* return offset trim value */
 213:.\Generated_Source\PSoC4/Comp.c ****     return (Comp_OA_OFFSET_TRIM_REG);
 322              		.loc 1 213 0
 323 005c 024B     		ldr	r3, .L30
 324 005e 1B68     		ldr	r3, [r3]
 214:.\Generated_Source\PSoC4/Comp.c **** }
 325              		.loc 1 214 0
 326 0060 181C     		mov	r0, r3
 327 0062 BD46     		mov	sp, r7
 328 0064 02B0     		add	sp, sp, #8
 329              		@ sp needed for prologue
 330 0066 80BD     		pop	{r7, pc}
 331              	.L31:
 332              		.align	2
 333              	.L30:
 334 0068 000F1040 		.word	1074794240
 335 006c 040F1040 		.word	1074794244
 336              		.cfi_endproc
 337              	.LFE5:
 338              		.size	Comp_ZeroCal, .-Comp_ZeroCal
 339              		.section	.text.Comp_LoadTrim,"ax",%progbits
 340              		.align	2
 341              		.global	Comp_LoadTrim
 342              		.code	16
 343              		.thumb_func
 344              		.type	Comp_LoadTrim, %function
 345              	Comp_LoadTrim:
 346              	.LFB6:
 215:.\Generated_Source\PSoC4/Comp.c **** 
 216:.\Generated_Source\PSoC4/Comp.c **** 
 217:.\Generated_Source\PSoC4/Comp.c **** /*******************************************************************************
 218:.\Generated_Source\PSoC4/Comp.c **** * Function Name: Comp_LoadTrim
 219:.\Generated_Source\PSoC4/Comp.c **** ********************************************************************************
 220:.\Generated_Source\PSoC4/Comp.c **** *
ARM GAS  C:\Users\wbz\AppData\Local\Temp\ccA7BnXU.s 			page 11


 221:.\Generated_Source\PSoC4/Comp.c **** * Summary:
 222:.\Generated_Source\PSoC4/Comp.c **** *  This function stores a value in the Analog Comparator trim register.
 223:.\Generated_Source\PSoC4/Comp.c **** *
 224:.\Generated_Source\PSoC4/Comp.c **** * Parameters:
 225:.\Generated_Source\PSoC4/Comp.c **** *  uint32 trimVal - trim value.  This value is the same format as the value
 226:.\Generated_Source\PSoC4/Comp.c **** *  returned by the _ZeroCal routine.
 227:.\Generated_Source\PSoC4/Comp.c **** *
 228:.\Generated_Source\PSoC4/Comp.c **** * Return:
 229:.\Generated_Source\PSoC4/Comp.c **** *  None
 230:.\Generated_Source\PSoC4/Comp.c **** *
 231:.\Generated_Source\PSoC4/Comp.c **** *******************************************************************************/
 232:.\Generated_Source\PSoC4/Comp.c **** void Comp_LoadTrim(uint32 trimVal)
 233:.\Generated_Source\PSoC4/Comp.c **** {
 347              		.loc 1 233 0
 348              		.cfi_startproc
 349 0000 80B5     		push	{r7, lr}
 350              	.LCFI14:
 351              		.cfi_def_cfa_offset 8
 352              		.cfi_offset 7, -8
 353              		.cfi_offset 14, -4
 354 0002 82B0     		sub	sp, sp, #8
 355              	.LCFI15:
 356              		.cfi_def_cfa_offset 16
 357 0004 00AF     		add	r7, sp, #0
 358              	.LCFI16:
 359              		.cfi_def_cfa_register 7
 360 0006 7860     		str	r0, [r7, #4]
 234:.\Generated_Source\PSoC4/Comp.c ****     Comp_OA_OFFSET_TRIM_REG = trimVal;
 361              		.loc 1 234 0
 362 0008 024B     		ldr	r3, .L34
 363 000a 7A68     		ldr	r2, [r7, #4]
 364 000c 1A60     		str	r2, [r3]
 235:.\Generated_Source\PSoC4/Comp.c **** }
 365              		.loc 1 235 0
 366 000e BD46     		mov	sp, r7
 367 0010 02B0     		add	sp, sp, #8
 368              		@ sp needed for prologue
 369 0012 80BD     		pop	{r7, pc}
 370              	.L35:
 371              		.align	2
 372              	.L34:
 373 0014 000F1040 		.word	1074794240
 374              		.cfi_endproc
 375              	.LFE6:
 376              		.size	Comp_LoadTrim, .-Comp_LoadTrim
 377              		.section	.text.Comp_GetCompare,"ax",%progbits
 378              		.align	2
 379              		.global	Comp_GetCompare
 380              		.code	16
 381              		.thumb_func
 382              		.type	Comp_GetCompare, %function
 383              	Comp_GetCompare:
 384              	.LFB7:
 236:.\Generated_Source\PSoC4/Comp.c **** 
 237:.\Generated_Source\PSoC4/Comp.c **** 
 238:.\Generated_Source\PSoC4/Comp.c **** /*******************************************************************************
 239:.\Generated_Source\PSoC4/Comp.c **** * Function Name: Comp_GetCompare
ARM GAS  C:\Users\wbz\AppData\Local\Temp\ccA7BnXU.s 			page 12


 240:.\Generated_Source\PSoC4/Comp.c **** ********************************************************************************
 241:.\Generated_Source\PSoC4/Comp.c **** *
 242:.\Generated_Source\PSoC4/Comp.c **** * Summary:
 243:.\Generated_Source\PSoC4/Comp.c **** *  This function returns the comparator output value.
 244:.\Generated_Source\PSoC4/Comp.c **** *
 245:.\Generated_Source\PSoC4/Comp.c **** * Parameters:
 246:.\Generated_Source\PSoC4/Comp.c **** *   None
 247:.\Generated_Source\PSoC4/Comp.c **** *
 248:.\Generated_Source\PSoC4/Comp.c **** * Return:
 249:.\Generated_Source\PSoC4/Comp.c **** *  (uint32)  0  if Pos_Input less than Neg_input
 250:.\Generated_Source\PSoC4/Comp.c **** *            1  if Pos_Input greater than Neg_input.
 251:.\Generated_Source\PSoC4/Comp.c **** *
 252:.\Generated_Source\PSoC4/Comp.c **** *******************************************************************************/
 253:.\Generated_Source\PSoC4/Comp.c **** uint32 Comp_GetCompare(void)
 254:.\Generated_Source\PSoC4/Comp.c **** {
 385              		.loc 1 254 0
 386              		.cfi_startproc
 387 0000 80B5     		push	{r7, lr}
 388              	.LCFI17:
 389              		.cfi_def_cfa_offset 8
 390              		.cfi_offset 7, -8
 391              		.cfi_offset 14, -4
 392 0002 00AF     		add	r7, sp, #0
 393              	.LCFI18:
 394              		.cfi_def_cfa_register 7
 255:.\Generated_Source\PSoC4/Comp.c ****     return ((uint32)(Comp_OA_COMPSTAT_REG >> Comp_OA_COMPSHIFT) & 1u);
 395              		.loc 1 255 0
 396 0004 034B     		ldr	r3, .L38
 397 0006 1A68     		ldr	r2, [r3]
 398 0008 0123     		mov	r3, #1
 399 000a 1340     		and	r3, r3, r2
 256:.\Generated_Source\PSoC4/Comp.c **** }
 400              		.loc 1 256 0
 401 000c 181C     		mov	r0, r3
 402 000e BD46     		mov	sp, r7
 403              		@ sp needed for prologue
 404 0010 80BD     		pop	{r7, pc}
 405              	.L39:
 406 0012 C046     		.align	2
 407              	.L38:
 408 0014 0C001040 		.word	1074790412
 409              		.cfi_endproc
 410              	.LFE7:
 411              		.size	Comp_GetCompare, .-Comp_GetCompare
 412              		.text
 413              	.Letext0: