ARM GAS  C:\Users\wbz\AppData\Local\Temp\ccgcN8Sr.s 			page 1


   1              		.cpu cortex-m0
   2              		.fpu softvfp
   3              		.eabi_attribute 20, 1
   4              		.eabi_attribute 21, 1
   5              		.eabi_attribute 23, 3
   6              		.eabi_attribute 24, 1
   7              		.eabi_attribute 25, 1
   8              		.eabi_attribute 26, 1
   9              		.eabi_attribute 30, 6
  10              		.eabi_attribute 18, 4
  11              		.code	16
  12              		.file	"LCD_LCDPort.c"
  19 0000 CD000000 		.text
  19      02006400 
  19      00000201 
  19      FB0E0D00 
  19      01010101 
  20              	.Ltext0:
  21              		.cfi_sections	.debug_frame
  22              		.section	.text.LCD_LCDPort_Write,"ax",%progbits
  23              		.align	2
  24              		.global	LCD_LCDPort_Write
  25              		.code	16
  26              		.thumb_func
  27              		.type	LCD_LCDPort_Write, %function
  28              	LCD_LCDPort_Write:
  29              	.LFB0:
  30              		.file 1 ".\\Generated_Source\\PSoC4\\LCD_LCDPort.c"
   1:.\Generated_Source\PSoC4/LCD_LCDPort.c **** /*******************************************************************************
   2:.\Generated_Source\PSoC4/LCD_LCDPort.c **** * File Name: LCD_LCDPort.c  
   3:.\Generated_Source\PSoC4/LCD_LCDPort.c **** * Version 1.90
   4:.\Generated_Source\PSoC4/LCD_LCDPort.c **** *
   5:.\Generated_Source\PSoC4/LCD_LCDPort.c **** * Description:
   6:.\Generated_Source\PSoC4/LCD_LCDPort.c **** *  This file contains API to enable firmware control of a Pins component.
   7:.\Generated_Source\PSoC4/LCD_LCDPort.c **** *
   8:.\Generated_Source\PSoC4/LCD_LCDPort.c **** * Note:
   9:.\Generated_Source\PSoC4/LCD_LCDPort.c **** *
  10:.\Generated_Source\PSoC4/LCD_LCDPort.c **** ********************************************************************************
  11:.\Generated_Source\PSoC4/LCD_LCDPort.c **** * Copyright 2008-2012, Cypress Semiconductor Corporation.  All rights reserved.
  12:.\Generated_Source\PSoC4/LCD_LCDPort.c **** * You may use this file only in accordance with the license, terms, conditions, 
  13:.\Generated_Source\PSoC4/LCD_LCDPort.c **** * disclaimers, and limitations in the end user license agreement accompanying 
  14:.\Generated_Source\PSoC4/LCD_LCDPort.c **** * the software package with which this file was provided.
  15:.\Generated_Source\PSoC4/LCD_LCDPort.c **** *******************************************************************************/
  16:.\Generated_Source\PSoC4/LCD_LCDPort.c **** 
  17:.\Generated_Source\PSoC4/LCD_LCDPort.c **** #include "cytypes.h"
  18:.\Generated_Source\PSoC4/LCD_LCDPort.c **** #include "LCD_LCDPort.h"
  19:.\Generated_Source\PSoC4/LCD_LCDPort.c **** 
  20:.\Generated_Source\PSoC4/LCD_LCDPort.c **** #define SetP4PinDriveMode(shift, mode)  \
  21:.\Generated_Source\PSoC4/LCD_LCDPort.c ****     do { \
  22:.\Generated_Source\PSoC4/LCD_LCDPort.c ****         LCD_LCDPort_PC =   (LCD_LCDPort_PC & \
  23:.\Generated_Source\PSoC4/LCD_LCDPort.c ****                                 (uint32)(~(uint32)(LCD_LCDPort_DRIVE_MODE_IND_MASK << (LCD_LCDPort_
ARM GAS  C:\Users\wbz\AppData\Local\Temp\ccgcN8Sr.s 			page 2


  24:.\Generated_Source\PSoC4/LCD_LCDPort.c ****                                 (uint32)((uint32)(mode) << (LCD_LCDPort_DRIVE_MODE_BITS * (shift)))
  25:.\Generated_Source\PSoC4/LCD_LCDPort.c ****     } while (0)
  26:.\Generated_Source\PSoC4/LCD_LCDPort.c **** 
  27:.\Generated_Source\PSoC4/LCD_LCDPort.c **** 
  28:.\Generated_Source\PSoC4/LCD_LCDPort.c **** /*******************************************************************************
  29:.\Generated_Source\PSoC4/LCD_LCDPort.c **** * Function Name: LCD_LCDPort_Write
  30:.\Generated_Source\PSoC4/LCD_LCDPort.c **** ********************************************************************************
  31:.\Generated_Source\PSoC4/LCD_LCDPort.c **** *
  32:.\Generated_Source\PSoC4/LCD_LCDPort.c **** * Summary:
  33:.\Generated_Source\PSoC4/LCD_LCDPort.c **** *  Assign a new value to the digital port's data output register.  
  34:.\Generated_Source\PSoC4/LCD_LCDPort.c **** *
  35:.\Generated_Source\PSoC4/LCD_LCDPort.c **** * Parameters:  
  36:.\Generated_Source\PSoC4/LCD_LCDPort.c **** *  prtValue:  The value to be assigned to the Digital Port. 
  37:.\Generated_Source\PSoC4/LCD_LCDPort.c **** *
  38:.\Generated_Source\PSoC4/LCD_LCDPort.c **** * Return: 
  39:.\Generated_Source\PSoC4/LCD_LCDPort.c **** *  None 
  40:.\Generated_Source\PSoC4/LCD_LCDPort.c **** *  
  41:.\Generated_Source\PSoC4/LCD_LCDPort.c **** *******************************************************************************/
  42:.\Generated_Source\PSoC4/LCD_LCDPort.c **** void LCD_LCDPort_Write(uint8 value) 
  43:.\Generated_Source\PSoC4/LCD_LCDPort.c **** {
  31              		.loc 1 43 0
  32              		.cfi_startproc
  33 0000 80B5     		push	{r7, lr}
  34              	.LCFI0:
  35              		.cfi_def_cfa_offset 8
  36              		.cfi_offset 7, -8
  37              		.cfi_offset 14, -4
  38 0002 84B0     		sub	sp, sp, #16
  39              	.LCFI1:
  40              		.cfi_def_cfa_offset 24
  41 0004 00AF     		add	r7, sp, #0
  42              	.LCFI2:
  43              		.cfi_def_cfa_register 7
  44 0006 021C     		mov	r2, r0
  45 0008 FB1D     		add	r3, r7, #7
  46 000a 1A70     		strb	r2, [r3]
  44:.\Generated_Source\PSoC4/LCD_LCDPort.c ****     uint8 drVal = (uint8)(LCD_LCDPort_DR & (uint8)(~LCD_LCDPort_MASK));
  47              		.loc 1 44 0
  48 000c 0D4B     		ldr	r3, .L3
  49 000e 1B68     		ldr	r3, [r3]
  50 0010 DAB2     		uxtb	r2, r3
  51 0012 3B1C     		mov	r3, r7
  52 0014 0F33     		add	r3, r3, #15
  53 0016 7F21     		mov	r1, #127
  54 0018 8A43     		bic	r2, r2, r1
  55 001a 1A70     		strb	r2, [r3]
  45:.\Generated_Source\PSoC4/LCD_LCDPort.c ****     drVal = (drVal | ((uint8)(value << LCD_LCDPort_SHIFT) & LCD_LCDPort_MASK));
  56              		.loc 1 45 0
  57 001c FB1D     		add	r3, r7, #7
  58 001e 1B78     		ldrb	r3, [r3]
  59 0020 7F22     		mov	r2, #127
  60 0022 1340     		and	r3, r3, r2
  61 0024 3A1C     		mov	r2, r7
  62 0026 0F32     		add	r2, r2, #15
  63 0028 391C     		mov	r1, r7
  64 002a 0F31     		add	r1, r1, #15
  65 002c 0978     		ldrb	r1, [r1]
ARM GAS  C:\Users\wbz\AppData\Local\Temp\ccgcN8Sr.s 			page 3


  66 002e 0B43     		orr	r3, r3, r1
  67 0030 1370     		strb	r3, [r2]
  46:.\Generated_Source\PSoC4/LCD_LCDPort.c ****     LCD_LCDPort_DR = (uint32)drVal;
  68              		.loc 1 46 0
  69 0032 044B     		ldr	r3, .L3
  70 0034 3A1C     		mov	r2, r7
  71 0036 0F32     		add	r2, r2, #15
  72 0038 1278     		ldrb	r2, [r2]
  73 003a 1A60     		str	r2, [r3]
  47:.\Generated_Source\PSoC4/LCD_LCDPort.c **** }
  74              		.loc 1 47 0
  75 003c BD46     		mov	sp, r7
  76 003e 04B0     		add	sp, sp, #16
  77              		@ sp needed for prologue
  78 0040 80BD     		pop	{r7, pc}
  79              	.L4:
  80 0042 C046     		.align	2
  81              	.L3:
  82 0044 00020440 		.word	1074004480
  83              		.cfi_endproc
  84              	.LFE0:
  85              		.size	LCD_LCDPort_Write, .-LCD_LCDPort_Write
  86              		.section	.text.LCD_LCDPort_SetDriveMode,"ax",%progbits
  87              		.align	2
  88              		.global	LCD_LCDPort_SetDriveMode
  89              		.code	16
  90              		.thumb_func
  91              		.type	LCD_LCDPort_SetDriveMode, %function
  92              	LCD_LCDPort_SetDriveMode:
  93              	.LFB1:
  48:.\Generated_Source\PSoC4/LCD_LCDPort.c **** 
  49:.\Generated_Source\PSoC4/LCD_LCDPort.c **** 
  50:.\Generated_Source\PSoC4/LCD_LCDPort.c **** /*******************************************************************************
  51:.\Generated_Source\PSoC4/LCD_LCDPort.c **** * Function Name: LCD_LCDPort_SetDriveMode
  52:.\Generated_Source\PSoC4/LCD_LCDPort.c **** ********************************************************************************
  53:.\Generated_Source\PSoC4/LCD_LCDPort.c **** *
  54:.\Generated_Source\PSoC4/LCD_LCDPort.c **** * Summary:
  55:.\Generated_Source\PSoC4/LCD_LCDPort.c **** *  Change the drive mode on the pins of the port.
  56:.\Generated_Source\PSoC4/LCD_LCDPort.c **** * 
  57:.\Generated_Source\PSoC4/LCD_LCDPort.c **** * Parameters:  
  58:.\Generated_Source\PSoC4/LCD_LCDPort.c **** *  mode:  Change the pins to this drive mode.
  59:.\Generated_Source\PSoC4/LCD_LCDPort.c **** *
  60:.\Generated_Source\PSoC4/LCD_LCDPort.c **** * Return: 
  61:.\Generated_Source\PSoC4/LCD_LCDPort.c **** *  None
  62:.\Generated_Source\PSoC4/LCD_LCDPort.c **** *
  63:.\Generated_Source\PSoC4/LCD_LCDPort.c **** *******************************************************************************/
  64:.\Generated_Source\PSoC4/LCD_LCDPort.c **** void LCD_LCDPort_SetDriveMode(uint8 mode) 
  65:.\Generated_Source\PSoC4/LCD_LCDPort.c **** {
  94              		.loc 1 65 0
  95              		.cfi_startproc
  96 0000 80B5     		push	{r7, lr}
  97              	.LCFI3:
  98              		.cfi_def_cfa_offset 8
  99              		.cfi_offset 7, -8
 100              		.cfi_offset 14, -4
 101 0002 82B0     		sub	sp, sp, #8
 102              	.LCFI4:
ARM GAS  C:\Users\wbz\AppData\Local\Temp\ccgcN8Sr.s 			page 4


 103              		.cfi_def_cfa_offset 16
 104 0004 00AF     		add	r7, sp, #0
 105              	.LCFI5:
 106              		.cfi_def_cfa_register 7
 107 0006 021C     		mov	r2, r0
 108 0008 FB1D     		add	r3, r7, #7
 109 000a 1A70     		strb	r2, [r3]
  66:.\Generated_Source\PSoC4/LCD_LCDPort.c **** 	SetP4PinDriveMode(LCD_LCDPort__0__SHIFT, mode);
 110              		.loc 1 66 0
 111 000c 254B     		ldr	r3, .L7
 112 000e 254A     		ldr	r2, .L7
 113 0010 1268     		ldr	r2, [r2]
 114 0012 0721     		mov	r1, #7
 115 0014 101C     		mov	r0, r2
 116 0016 8843     		bic	r0, r0, r1
 117 0018 011C     		mov	r1, r0
 118 001a FA1D     		add	r2, r7, #7
 119 001c 1278     		ldrb	r2, [r2]
 120 001e 0A43     		orr	r2, r2, r1
 121 0020 1A60     		str	r2, [r3]
  67:.\Generated_Source\PSoC4/LCD_LCDPort.c **** 	SetP4PinDriveMode(LCD_LCDPort__1__SHIFT, mode);
 122              		.loc 1 67 0
 123 0022 204B     		ldr	r3, .L7
 124 0024 1F4A     		ldr	r2, .L7
 125 0026 1268     		ldr	r2, [r2]
 126 0028 3821     		mov	r1, #56
 127 002a 101C     		mov	r0, r2
 128 002c 8843     		bic	r0, r0, r1
 129 002e 011C     		mov	r1, r0
 130 0030 FA1D     		add	r2, r7, #7
 131 0032 1278     		ldrb	r2, [r2]
 132 0034 D200     		lsl	r2, r2, #3
 133 0036 0A43     		orr	r2, r2, r1
 134 0038 1A60     		str	r2, [r3]
  68:.\Generated_Source\PSoC4/LCD_LCDPort.c **** 	SetP4PinDriveMode(LCD_LCDPort__2__SHIFT, mode);
 135              		.loc 1 68 0
 136 003a 1A4B     		ldr	r3, .L7
 137 003c 194A     		ldr	r2, .L7
 138 003e 1168     		ldr	r1, [r2]
 139 0040 194A     		ldr	r2, .L7+4
 140 0042 1140     		and	r1, r1, r2
 141 0044 FA1D     		add	r2, r7, #7
 142 0046 1278     		ldrb	r2, [r2]
 143 0048 9201     		lsl	r2, r2, #6
 144 004a 0A43     		orr	r2, r2, r1
 145 004c 1A60     		str	r2, [r3]
  69:.\Generated_Source\PSoC4/LCD_LCDPort.c **** 	SetP4PinDriveMode(LCD_LCDPort__3__SHIFT, mode);
 146              		.loc 1 69 0
 147 004e 154B     		ldr	r3, .L7
 148 0050 144A     		ldr	r2, .L7
 149 0052 1168     		ldr	r1, [r2]
 150 0054 154A     		ldr	r2, .L7+8
 151 0056 1140     		and	r1, r1, r2
 152 0058 FA1D     		add	r2, r7, #7
 153 005a 1278     		ldrb	r2, [r2]
 154 005c 5202     		lsl	r2, r2, #9
 155 005e 0A43     		orr	r2, r2, r1
ARM GAS  C:\Users\wbz\AppData\Local\Temp\ccgcN8Sr.s 			page 5


 156 0060 1A60     		str	r2, [r3]
  70:.\Generated_Source\PSoC4/LCD_LCDPort.c **** 	SetP4PinDriveMode(LCD_LCDPort__4__SHIFT, mode);
 157              		.loc 1 70 0
 158 0062 104B     		ldr	r3, .L7
 159 0064 0F4A     		ldr	r2, .L7
 160 0066 1168     		ldr	r1, [r2]
 161 0068 114A     		ldr	r2, .L7+12
 162 006a 1140     		and	r1, r1, r2
 163 006c FA1D     		add	r2, r7, #7
 164 006e 1278     		ldrb	r2, [r2]
 165 0070 1203     		lsl	r2, r2, #12
 166 0072 0A43     		orr	r2, r2, r1
 167 0074 1A60     		str	r2, [r3]
  71:.\Generated_Source\PSoC4/LCD_LCDPort.c **** 	SetP4PinDriveMode(LCD_LCDPort__5__SHIFT, mode);
 168              		.loc 1 71 0
 169 0076 0B4B     		ldr	r3, .L7
 170 0078 0A4A     		ldr	r2, .L7
 171 007a 1168     		ldr	r1, [r2]
 172 007c 0D4A     		ldr	r2, .L7+16
 173 007e 1140     		and	r1, r1, r2
 174 0080 FA1D     		add	r2, r7, #7
 175 0082 1278     		ldrb	r2, [r2]
 176 0084 D203     		lsl	r2, r2, #15
 177 0086 0A43     		orr	r2, r2, r1
 178 0088 1A60     		str	r2, [r3]
  72:.\Generated_Source\PSoC4/LCD_LCDPort.c **** 	SetP4PinDriveMode(LCD_LCDPort__6__SHIFT, mode);
 179              		.loc 1 72 0
 180 008a 064B     		ldr	r3, .L7
 181 008c 054A     		ldr	r2, .L7
 182 008e 1168     		ldr	r1, [r2]
 183 0090 094A     		ldr	r2, .L7+20
 184 0092 1140     		and	r1, r1, r2
 185 0094 FA1D     		add	r2, r7, #7
 186 0096 1278     		ldrb	r2, [r2]
 187 0098 9204     		lsl	r2, r2, #18
 188 009a 0A43     		orr	r2, r2, r1
 189 009c 1A60     		str	r2, [r3]
  73:.\Generated_Source\PSoC4/LCD_LCDPort.c **** }
 190              		.loc 1 73 0
 191 009e BD46     		mov	sp, r7
 192 00a0 02B0     		add	sp, sp, #8
 193              		@ sp needed for prologue
 194 00a2 80BD     		pop	{r7, pc}
 195              	.L8:
 196              		.align	2
 197              	.L7:
 198 00a4 08020440 		.word	1074004488
 199 00a8 3FFEFFFF 		.word	-449
 200 00ac FFF1FFFF 		.word	-3585
 201 00b0 FF8FFFFF 		.word	-28673
 202 00b4 FF7FFCFF 		.word	-229377
 203 00b8 FFFFE3FF 		.word	-1835009
 204              		.cfi_endproc
 205              	.LFE1:
 206              		.size	LCD_LCDPort_SetDriveMode, .-LCD_LCDPort_SetDriveMode
 207              		.section	.text.LCD_LCDPort_Read,"ax",%progbits
 208              		.align	2
ARM GAS  C:\Users\wbz\AppData\Local\Temp\ccgcN8Sr.s 			page 6


 209              		.global	LCD_LCDPort_Read
 210              		.code	16
 211              		.thumb_func
 212              		.type	LCD_LCDPort_Read, %function
 213              	LCD_LCDPort_Read:
 214              	.LFB2:
  74:.\Generated_Source\PSoC4/LCD_LCDPort.c **** 
  75:.\Generated_Source\PSoC4/LCD_LCDPort.c **** 
  76:.\Generated_Source\PSoC4/LCD_LCDPort.c **** /*******************************************************************************
  77:.\Generated_Source\PSoC4/LCD_LCDPort.c **** * Function Name: LCD_LCDPort_Read
  78:.\Generated_Source\PSoC4/LCD_LCDPort.c **** ********************************************************************************
  79:.\Generated_Source\PSoC4/LCD_LCDPort.c **** *
  80:.\Generated_Source\PSoC4/LCD_LCDPort.c **** * Summary:
  81:.\Generated_Source\PSoC4/LCD_LCDPort.c **** *  Read the current value on the pins of the Digital Port in right justified 
  82:.\Generated_Source\PSoC4/LCD_LCDPort.c **** *  form.
  83:.\Generated_Source\PSoC4/LCD_LCDPort.c **** *
  84:.\Generated_Source\PSoC4/LCD_LCDPort.c **** * Parameters:  
  85:.\Generated_Source\PSoC4/LCD_LCDPort.c **** *  None 
  86:.\Generated_Source\PSoC4/LCD_LCDPort.c **** *
  87:.\Generated_Source\PSoC4/LCD_LCDPort.c **** * Return: 
  88:.\Generated_Source\PSoC4/LCD_LCDPort.c **** *  Returns the current value of the Digital Port as a right justified number
  89:.\Generated_Source\PSoC4/LCD_LCDPort.c **** *  
  90:.\Generated_Source\PSoC4/LCD_LCDPort.c **** * Note:
  91:.\Generated_Source\PSoC4/LCD_LCDPort.c **** *  Macro LCD_LCDPort_ReadPS calls this function. 
  92:.\Generated_Source\PSoC4/LCD_LCDPort.c **** *  
  93:.\Generated_Source\PSoC4/LCD_LCDPort.c **** *******************************************************************************/
  94:.\Generated_Source\PSoC4/LCD_LCDPort.c **** uint8 LCD_LCDPort_Read(void) 
  95:.\Generated_Source\PSoC4/LCD_LCDPort.c **** {
 215              		.loc 1 95 0
 216              		.cfi_startproc
 217 0000 80B5     		push	{r7, lr}
 218              	.LCFI6:
 219              		.cfi_def_cfa_offset 8
 220              		.cfi_offset 7, -8
 221              		.cfi_offset 14, -4
 222 0002 00AF     		add	r7, sp, #0
 223              	.LCFI7:
 224              		.cfi_def_cfa_register 7
  96:.\Generated_Source\PSoC4/LCD_LCDPort.c ****     return (uint8)((LCD_LCDPort_PS & LCD_LCDPort_MASK) >> LCD_LCDPort_SHIFT);
 225              		.loc 1 96 0
 226 0004 034B     		ldr	r3, .L11
 227 0006 1B68     		ldr	r3, [r3]
 228 0008 DBB2     		uxtb	r3, r3
 229 000a 7F22     		mov	r2, #127
 230 000c 1340     		and	r3, r3, r2
  97:.\Generated_Source\PSoC4/LCD_LCDPort.c **** }
 231              		.loc 1 97 0
 232 000e 181C     		mov	r0, r3
 233 0010 BD46     		mov	sp, r7
 234              		@ sp needed for prologue
 235 0012 80BD     		pop	{r7, pc}
 236              	.L12:
 237              		.align	2
 238              	.L11:
 239 0014 04020440 		.word	1074004484
 240              		.cfi_endproc
 241              	.LFE2:
ARM GAS  C:\Users\wbz\AppData\Local\Temp\ccgcN8Sr.s 			page 7


 242              		.size	LCD_LCDPort_Read, .-LCD_LCDPort_Read
 243              		.section	.text.LCD_LCDPort_ReadDataReg,"ax",%progbits
 244              		.align	2
 245              		.global	LCD_LCDPort_ReadDataReg
 246              		.code	16
 247              		.thumb_func
 248              		.type	LCD_LCDPort_ReadDataReg, %function
 249              	LCD_LCDPort_ReadDataReg:
 250              	.LFB3:
  98:.\Generated_Source\PSoC4/LCD_LCDPort.c **** 
  99:.\Generated_Source\PSoC4/LCD_LCDPort.c **** 
 100:.\Generated_Source\PSoC4/LCD_LCDPort.c **** /*******************************************************************************
 101:.\Generated_Source\PSoC4/LCD_LCDPort.c **** * Function Name: LCD_LCDPort_ReadDataReg
 102:.\Generated_Source\PSoC4/LCD_LCDPort.c **** ********************************************************************************
 103:.\Generated_Source\PSoC4/LCD_LCDPort.c **** *
 104:.\Generated_Source\PSoC4/LCD_LCDPort.c **** * Summary:
 105:.\Generated_Source\PSoC4/LCD_LCDPort.c **** *  Read the current value assigned to a Digital Port's data output register
 106:.\Generated_Source\PSoC4/LCD_LCDPort.c **** *
 107:.\Generated_Source\PSoC4/LCD_LCDPort.c **** * Parameters:  
 108:.\Generated_Source\PSoC4/LCD_LCDPort.c **** *  None 
 109:.\Generated_Source\PSoC4/LCD_LCDPort.c **** *
 110:.\Generated_Source\PSoC4/LCD_LCDPort.c **** * Return: 
 111:.\Generated_Source\PSoC4/LCD_LCDPort.c **** *  Returns the current value assigned to the Digital Port's data output register
 112:.\Generated_Source\PSoC4/LCD_LCDPort.c **** *  
 113:.\Generated_Source\PSoC4/LCD_LCDPort.c **** *******************************************************************************/
 114:.\Generated_Source\PSoC4/LCD_LCDPort.c **** uint8 LCD_LCDPort_ReadDataReg(void) 
 115:.\Generated_Source\PSoC4/LCD_LCDPort.c **** {
 251              		.loc 1 115 0
 252              		.cfi_startproc
 253 0000 80B5     		push	{r7, lr}
 254              	.LCFI8:
 255              		.cfi_def_cfa_offset 8
 256              		.cfi_offset 7, -8
 257              		.cfi_offset 14, -4
 258 0002 00AF     		add	r7, sp, #0
 259              	.LCFI9:
 260              		.cfi_def_cfa_register 7
 116:.\Generated_Source\PSoC4/LCD_LCDPort.c ****     return (uint8)((LCD_LCDPort_DR & LCD_LCDPort_MASK) >> LCD_LCDPort_SHIFT);
 261              		.loc 1 116 0
 262 0004 034B     		ldr	r3, .L15
 263 0006 1B68     		ldr	r3, [r3]
 264 0008 DBB2     		uxtb	r3, r3
 265 000a 7F22     		mov	r2, #127
 266 000c 1340     		and	r3, r3, r2
 117:.\Generated_Source\PSoC4/LCD_LCDPort.c **** }
 267              		.loc 1 117 0
 268 000e 181C     		mov	r0, r3
 269 0010 BD46     		mov	sp, r7
 270              		@ sp needed for prologue
 271 0012 80BD     		pop	{r7, pc}
 272              	.L16:
 273              		.align	2
 274              	.L15:
 275 0014 00020440 		.word	1074004480
 276              		.cfi_endproc
 277              	.LFE3:
 278              		.size	LCD_LCDPort_ReadDataReg, .-LCD_LCDPort_ReadDataReg
ARM GAS  C:\Users\wbz\AppData\Local\Temp\ccgcN8Sr.s 			page 8


 279              		.section	.text.LCD_LCDPort_ClearInterrupt,"ax",%progbits
 280              		.align	2
 281              		.global	LCD_LCDPort_ClearInterrupt
 282              		.code	16
 283              		.thumb_func
 284              		.type	LCD_LCDPort_ClearInterrupt, %function
 285              	LCD_LCDPort_ClearInterrupt:
 286              	.LFB4:
 118:.\Generated_Source\PSoC4/LCD_LCDPort.c **** 
 119:.\Generated_Source\PSoC4/LCD_LCDPort.c **** 
 120:.\Generated_Source\PSoC4/LCD_LCDPort.c **** /* If Interrupts Are Enabled for this Pins component */ 
 121:.\Generated_Source\PSoC4/LCD_LCDPort.c **** #if defined(LCD_LCDPort_INTSTAT) 
 122:.\Generated_Source\PSoC4/LCD_LCDPort.c **** 
 123:.\Generated_Source\PSoC4/LCD_LCDPort.c ****     /*******************************************************************************
 124:.\Generated_Source\PSoC4/LCD_LCDPort.c ****     * Function Name: LCD_LCDPort_ClearInterrupt
 125:.\Generated_Source\PSoC4/LCD_LCDPort.c ****     ********************************************************************************
 126:.\Generated_Source\PSoC4/LCD_LCDPort.c ****     *
 127:.\Generated_Source\PSoC4/LCD_LCDPort.c ****     * Summary:
 128:.\Generated_Source\PSoC4/LCD_LCDPort.c ****     *  Clears any active interrupts attached to port and returns the value of the 
 129:.\Generated_Source\PSoC4/LCD_LCDPort.c ****     *  interrupt status register.
 130:.\Generated_Source\PSoC4/LCD_LCDPort.c ****     *
 131:.\Generated_Source\PSoC4/LCD_LCDPort.c ****     * Parameters:  
 132:.\Generated_Source\PSoC4/LCD_LCDPort.c ****     *  None 
 133:.\Generated_Source\PSoC4/LCD_LCDPort.c ****     *
 134:.\Generated_Source\PSoC4/LCD_LCDPort.c ****     * Return: 
 135:.\Generated_Source\PSoC4/LCD_LCDPort.c ****     *  Returns the value of the interrupt status register
 136:.\Generated_Source\PSoC4/LCD_LCDPort.c ****     *  
 137:.\Generated_Source\PSoC4/LCD_LCDPort.c ****     *******************************************************************************/
 138:.\Generated_Source\PSoC4/LCD_LCDPort.c ****     uint8 LCD_LCDPort_ClearInterrupt(void) 
 139:.\Generated_Source\PSoC4/LCD_LCDPort.c ****     {
 287              		.loc 1 139 0
 288              		.cfi_startproc
 289 0000 80B5     		push	{r7, lr}
 290              	.LCFI10:
 291              		.cfi_def_cfa_offset 8
 292              		.cfi_offset 7, -8
 293              		.cfi_offset 14, -4
 294 0002 82B0     		sub	sp, sp, #8
 295              	.LCFI11:
 296              		.cfi_def_cfa_offset 16
 297 0004 00AF     		add	r7, sp, #0
 298              	.LCFI12:
 299              		.cfi_def_cfa_register 7
 140:.\Generated_Source\PSoC4/LCD_LCDPort.c **** 		uint8 maskedStatus = (uint8)(LCD_LCDPort_INTSTAT & LCD_LCDPort_MASK);
 300              		.loc 1 140 0
 301 0006 084B     		ldr	r3, .L19
 302 0008 1B68     		ldr	r3, [r3]
 303 000a D9B2     		uxtb	r1, r3
 304 000c FB1D     		add	r3, r7, #7
 305 000e 7F22     		mov	r2, #127
 306 0010 0A40     		and	r2, r2, r1
 307 0012 1A70     		strb	r2, [r3]
 141:.\Generated_Source\PSoC4/LCD_LCDPort.c **** 		LCD_LCDPort_INTSTAT = maskedStatus;
 308              		.loc 1 141 0
 309 0014 044B     		ldr	r3, .L19
 310 0016 FA1D     		add	r2, r7, #7
 311 0018 1278     		ldrb	r2, [r2]
ARM GAS  C:\Users\wbz\AppData\Local\Temp\ccgcN8Sr.s 			page 9


 312 001a 1A60     		str	r2, [r3]
 142:.\Generated_Source\PSoC4/LCD_LCDPort.c ****         return maskedStatus >> LCD_LCDPort_SHIFT;
 313              		.loc 1 142 0
 314 001c FB1D     		add	r3, r7, #7
 315 001e 1B78     		ldrb	r3, [r3]
 143:.\Generated_Source\PSoC4/LCD_LCDPort.c ****     }
 316              		.loc 1 143 0
 317 0020 181C     		mov	r0, r3
 318 0022 BD46     		mov	sp, r7
 319 0024 02B0     		add	sp, sp, #8
 320              		@ sp needed for prologue
 321 0026 80BD     		pop	{r7, pc}
 322              	.L20:
 323              		.align	2
 324              	.L19:
 325 0028 10020440 		.word	1074004496
 326              		.cfi_endproc
 327              	.LFE4:
 328              		.size	LCD_LCDPort_ClearInterrupt, .-LCD_LCDPort_ClearInterrupt
 329              		.text
 330              	.Letext0: