ARM GAS  C:\Users\wbz\AppData\Local\Temp\ccEtsw5V.s 			page 1


   1              		.cpu cortex-m0
   2              		.fpu softvfp
   3              		.eabi_attribute 20, 1
   4              		.eabi_attribute 21, 1
   5              		.eabi_attribute 23, 3
   6              		.eabi_attribute 24, 1
   7              		.eabi_attribute 25, 1
   8              		.eabi_attribute 26, 1
   9              		.eabi_attribute 30, 6
  10              		.eabi_attribute 18, 4
  11              		.code	16
  12              		.file	"UART_PM.c"
  19 0000 C8000000 		.text
  19      02006A00 
  19      00000201 
  19      FB0E0D00 
  19      01010101 
  20              	.Ltext0:
  21              		.cfi_sections	.debug_frame
  22              		.global	UART_backup
  23              		.bss
  24              		.align	2
  25              		.type	UART_backup, %object
  26              		.size	UART_backup, 1
  27              	UART_backup:
  28 0000 00       		.space	1
  29 0001 000000   		.section	.text.UART_Sleep,"ax",%progbits
  30              		.align	2
  31              		.global	UART_Sleep
  32              		.code	16
  33              		.thumb_func
  34              		.type	UART_Sleep, %function
  35              	UART_Sleep:
  36              	.LFB0:
  37              		.file 1 ".\\Generated_Source\\PSoC4\\UART_PM.c"
   1:.\Generated_Source\PSoC4/UART_PM.c **** /*******************************************************************************
   2:.\Generated_Source\PSoC4/UART_PM.c **** * File Name: UART_PM.c
   3:.\Generated_Source\PSoC4/UART_PM.c **** * Version 1.10
   4:.\Generated_Source\PSoC4/UART_PM.c **** *
   5:.\Generated_Source\PSoC4/UART_PM.c **** * Description:
   6:.\Generated_Source\PSoC4/UART_PM.c **** *  This file provides the source code to the Power Management support for
   7:.\Generated_Source\PSoC4/UART_PM.c **** *  the SCB Component.
   8:.\Generated_Source\PSoC4/UART_PM.c **** *
   9:.\Generated_Source\PSoC4/UART_PM.c **** * Note:
  10:.\Generated_Source\PSoC4/UART_PM.c **** *
  11:.\Generated_Source\PSoC4/UART_PM.c **** ********************************************************************************
  12:.\Generated_Source\PSoC4/UART_PM.c **** * Copyright 2013, Cypress Semiconductor Corporation.  All rights reserved.
  13:.\Generated_Source\PSoC4/UART_PM.c **** * You may use this file only in accordance with the license, terms, conditions,
  14:.\Generated_Source\PSoC4/UART_PM.c **** * disclaimers, and limitations in the end user license agreement accompanying
  15:.\Generated_Source\PSoC4/UART_PM.c **** * the software package with which this file was provided.
  16:.\Generated_Source\PSoC4/UART_PM.c **** *******************************************************************************/
ARM GAS  C:\Users\wbz\AppData\Local\Temp\ccEtsw5V.s 			page 2


  17:.\Generated_Source\PSoC4/UART_PM.c **** 
  18:.\Generated_Source\PSoC4/UART_PM.c **** #include "UART.h"
  19:.\Generated_Source\PSoC4/UART_PM.c **** #include "UART_PVT.h"
  20:.\Generated_Source\PSoC4/UART_PM.c **** 
  21:.\Generated_Source\PSoC4/UART_PM.c **** #if(UART_SCB_MODE_I2C_INC)
  22:.\Generated_Source\PSoC4/UART_PM.c ****     #include "UART_I2C_PVT.h"
  23:.\Generated_Source\PSoC4/UART_PM.c **** #endif /* (UART_SCB_MODE_I2C_INC) */
  24:.\Generated_Source\PSoC4/UART_PM.c **** 
  25:.\Generated_Source\PSoC4/UART_PM.c **** #if(UART_SCB_MODE_EZI2C_INC)
  26:.\Generated_Source\PSoC4/UART_PM.c ****     #include "UART_EZI2C_PVT.h"
  27:.\Generated_Source\PSoC4/UART_PM.c **** #endif /* (UART_SCB_MODE_EZI2C_INC) */
  28:.\Generated_Source\PSoC4/UART_PM.c **** 
  29:.\Generated_Source\PSoC4/UART_PM.c **** #if(UART_SCB_MODE_SPI_INC || UART_SCB_MODE_UART_INC)
  30:.\Generated_Source\PSoC4/UART_PM.c ****     #include "UART_SPI_UART_PVT.h"
  31:.\Generated_Source\PSoC4/UART_PM.c **** #endif /* (UART_SCB_MODE_SPI_INC || UART_SCB_MODE_UART_INC) */
  32:.\Generated_Source\PSoC4/UART_PM.c **** 
  33:.\Generated_Source\PSoC4/UART_PM.c **** 
  34:.\Generated_Source\PSoC4/UART_PM.c **** /***************************************
  35:.\Generated_Source\PSoC4/UART_PM.c **** *   Backup Structure declaration
  36:.\Generated_Source\PSoC4/UART_PM.c **** ***************************************/
  37:.\Generated_Source\PSoC4/UART_PM.c **** 
  38:.\Generated_Source\PSoC4/UART_PM.c **** UART_BACKUP_STRUCT UART_backup =
  39:.\Generated_Source\PSoC4/UART_PM.c **** {
  40:.\Generated_Source\PSoC4/UART_PM.c ****     0u, /* enableState */
  41:.\Generated_Source\PSoC4/UART_PM.c **** };
  42:.\Generated_Source\PSoC4/UART_PM.c **** 
  43:.\Generated_Source\PSoC4/UART_PM.c **** 
  44:.\Generated_Source\PSoC4/UART_PM.c **** /*******************************************************************************
  45:.\Generated_Source\PSoC4/UART_PM.c **** * Function Name: UART_Sleep
  46:.\Generated_Source\PSoC4/UART_PM.c **** ********************************************************************************
  47:.\Generated_Source\PSoC4/UART_PM.c **** *
  48:.\Generated_Source\PSoC4/UART_PM.c **** * Summary:
  49:.\Generated_Source\PSoC4/UART_PM.c **** *  Calls SaveConfig function fucntion for selected mode.
  50:.\Generated_Source\PSoC4/UART_PM.c **** *
  51:.\Generated_Source\PSoC4/UART_PM.c **** * Parameters:
  52:.\Generated_Source\PSoC4/UART_PM.c **** *  None
  53:.\Generated_Source\PSoC4/UART_PM.c **** *
  54:.\Generated_Source\PSoC4/UART_PM.c **** * Return:
  55:.\Generated_Source\PSoC4/UART_PM.c **** *  None
  56:.\Generated_Source\PSoC4/UART_PM.c **** *
  57:.\Generated_Source\PSoC4/UART_PM.c **** *******************************************************************************/
  58:.\Generated_Source\PSoC4/UART_PM.c **** void UART_Sleep(void)
  59:.\Generated_Source\PSoC4/UART_PM.c **** {
  38              		.loc 1 59 0
  39              		.cfi_startproc
  40 0000 80B5     		push	{r7, lr}
  41              	.LCFI0:
  42              		.cfi_def_cfa_offset 8
  43              		.cfi_offset 7, -8
  44              		.cfi_offset 14, -4
  45 0002 00AF     		add	r7, sp, #0
  46              	.LCFI1:
  47              		.cfi_def_cfa_register 7
  60:.\Generated_Source\PSoC4/UART_PM.c **** #if(UART_SCB_MODE_UNCONFIG_CONST_CFG)
  61:.\Generated_Source\PSoC4/UART_PM.c **** 
  62:.\Generated_Source\PSoC4/UART_PM.c ****     if(0u != UART_scbEnableWake)
  63:.\Generated_Source\PSoC4/UART_PM.c ****     {
ARM GAS  C:\Users\wbz\AppData\Local\Temp\ccEtsw5V.s 			page 3


  64:.\Generated_Source\PSoC4/UART_PM.c ****         if(UART_SCB_MODE_I2C_RUNTM_CFG)
  65:.\Generated_Source\PSoC4/UART_PM.c ****         {
  66:.\Generated_Source\PSoC4/UART_PM.c ****             UART_I2CSaveConfig();
  67:.\Generated_Source\PSoC4/UART_PM.c ****         }
  68:.\Generated_Source\PSoC4/UART_PM.c ****         else if(UART_SCB_MODE_SPI_RUNTM_CFG)
  69:.\Generated_Source\PSoC4/UART_PM.c ****         {
  70:.\Generated_Source\PSoC4/UART_PM.c ****             UART_SpiSaveConfig();
  71:.\Generated_Source\PSoC4/UART_PM.c ****         }
  72:.\Generated_Source\PSoC4/UART_PM.c ****         else if(UART_SCB_MODE_UART_RUNTM_CFG)
  73:.\Generated_Source\PSoC4/UART_PM.c ****         {
  74:.\Generated_Source\PSoC4/UART_PM.c ****             UART_UartSaveConfig();
  75:.\Generated_Source\PSoC4/UART_PM.c ****         }
  76:.\Generated_Source\PSoC4/UART_PM.c ****         else if(UART_SCB_MODE_EZI2C_RUNTM_CFG)
  77:.\Generated_Source\PSoC4/UART_PM.c ****         {
  78:.\Generated_Source\PSoC4/UART_PM.c ****             UART_EzI2CSaveConfig();
  79:.\Generated_Source\PSoC4/UART_PM.c ****         }
  80:.\Generated_Source\PSoC4/UART_PM.c ****         else
  81:.\Generated_Source\PSoC4/UART_PM.c ****         {
  82:.\Generated_Source\PSoC4/UART_PM.c ****             /* Unknown mode: do nothing */
  83:.\Generated_Source\PSoC4/UART_PM.c ****         }
  84:.\Generated_Source\PSoC4/UART_PM.c ****     }
  85:.\Generated_Source\PSoC4/UART_PM.c ****     else
  86:.\Generated_Source\PSoC4/UART_PM.c ****     {
  87:.\Generated_Source\PSoC4/UART_PM.c ****         UART_backup.enableState = (uint8) UART_GET_CTRL_ENABLED;
  88:.\Generated_Source\PSoC4/UART_PM.c ****         
  89:.\Generated_Source\PSoC4/UART_PM.c ****         if(0u != UART_backup.enableState)
  90:.\Generated_Source\PSoC4/UART_PM.c ****         {
  91:.\Generated_Source\PSoC4/UART_PM.c ****             UART_Stop();
  92:.\Generated_Source\PSoC4/UART_PM.c ****         }
  93:.\Generated_Source\PSoC4/UART_PM.c ****     }
  94:.\Generated_Source\PSoC4/UART_PM.c ****     
  95:.\Generated_Source\PSoC4/UART_PM.c ****     UART_DisableTxPinsInputBuffer();
  96:.\Generated_Source\PSoC4/UART_PM.c ****     
  97:.\Generated_Source\PSoC4/UART_PM.c **** #else
  98:.\Generated_Source\PSoC4/UART_PM.c ****     
  99:.\Generated_Source\PSoC4/UART_PM.c ****     #if defined (UART_I2C_WAKE_ENABLE_CONST) && (UART_I2C_WAKE_ENABLE_CONST)
 100:.\Generated_Source\PSoC4/UART_PM.c ****         UART_I2CSaveConfig();
 101:.\Generated_Source\PSoC4/UART_PM.c ****         
 102:.\Generated_Source\PSoC4/UART_PM.c ****     #elif defined (UART_SPI_WAKE_ENABLE_CONST) && (UART_SPI_WAKE_ENABLE_CONST)
 103:.\Generated_Source\PSoC4/UART_PM.c ****         UART_SpiSaveConfig();
 104:.\Generated_Source\PSoC4/UART_PM.c ****         
 105:.\Generated_Source\PSoC4/UART_PM.c ****     #elif defined (UART_UART_WAKE_ENABLE_CONST) && (UART_UART_WAKE_ENABLE_CONST)
 106:.\Generated_Source\PSoC4/UART_PM.c ****         UART_UartSaveConfig();
 107:.\Generated_Source\PSoC4/UART_PM.c ****         
 108:.\Generated_Source\PSoC4/UART_PM.c ****     #elif defined (UART_EZI2C_WAKE_ENABLE_CONST) && (UART_EZI2C_WAKE_ENABLE_CONST)
 109:.\Generated_Source\PSoC4/UART_PM.c ****         UART_EzI2CSaveConfig();
 110:.\Generated_Source\PSoC4/UART_PM.c ****     
 111:.\Generated_Source\PSoC4/UART_PM.c ****     #else
 112:.\Generated_Source\PSoC4/UART_PM.c ****         
 113:.\Generated_Source\PSoC4/UART_PM.c ****         UART_backup.enableState = (uint8) UART_GET_CTRL_ENABLED;
  48              		.loc 1 113 0
  49 0004 074B     		ldr	r3, .L4
  50 0006 1B68     		ldr	r3, [r3]
  51 0008 DA0F     		lsr	r2, r3, #31
  52 000a 074B     		ldr	r3, .L4+4
  53 000c 1A70     		strb	r2, [r3]
 114:.\Generated_Source\PSoC4/UART_PM.c ****         
ARM GAS  C:\Users\wbz\AppData\Local\Temp\ccEtsw5V.s 			page 4


 115:.\Generated_Source\PSoC4/UART_PM.c ****         /* Check enable state */
 116:.\Generated_Source\PSoC4/UART_PM.c ****         if(0u != UART_backup.enableState)
  54              		.loc 1 116 0
  55 000e 064B     		ldr	r3, .L4+4
  56 0010 1B78     		ldrb	r3, [r3]
  57 0012 002B     		cmp	r3, #0
  58 0014 01D0     		beq	.L2
 117:.\Generated_Source\PSoC4/UART_PM.c ****         {
 118:.\Generated_Source\PSoC4/UART_PM.c ****             UART_Stop();
  59              		.loc 1 118 0
  60 0016 FFF7FEFF 		bl	UART_Stop
  61              	.L2:
 119:.\Generated_Source\PSoC4/UART_PM.c ****         }
 120:.\Generated_Source\PSoC4/UART_PM.c ****         
 121:.\Generated_Source\PSoC4/UART_PM.c ****     #endif /* defined (UART_SCB_MODE_I2C_CONST_CFG) && (UART_I2C_WAKE_ENABLE_CONST) */
 122:.\Generated_Source\PSoC4/UART_PM.c ****     
 123:.\Generated_Source\PSoC4/UART_PM.c ****     UART_DisableTxPinsInputBuffer();
  62              		.loc 1 123 0
  63 001a FFF7FEFF 		bl	UART_DisableTxPinsInputBuffer
 124:.\Generated_Source\PSoC4/UART_PM.c ****     
 125:.\Generated_Source\PSoC4/UART_PM.c **** #endif /* (UART_SCB_MODE_UNCONFIG_CONST_CFG) */
 126:.\Generated_Source\PSoC4/UART_PM.c **** }
  64              		.loc 1 126 0
  65 001e BD46     		mov	sp, r7
  66              		@ sp needed for prologue
  67 0020 80BD     		pop	{r7, pc}
  68              	.L5:
  69 0022 C046     		.align	2
  70              	.L4:
  71 0024 00000640 		.word	1074135040
  72 0028 00000000 		.word	UART_backup
  73              		.cfi_endproc
  74              	.LFE0:
  75              		.size	UART_Sleep, .-UART_Sleep
  76              		.section	.text.UART_Wakeup,"ax",%progbits
  77              		.align	2
  78              		.global	UART_Wakeup
  79              		.code	16
  80              		.thumb_func
  81              		.type	UART_Wakeup, %function
  82              	UART_Wakeup:
  83              	.LFB1:
 127:.\Generated_Source\PSoC4/UART_PM.c **** 
 128:.\Generated_Source\PSoC4/UART_PM.c **** 
 129:.\Generated_Source\PSoC4/UART_PM.c **** /*******************************************************************************
 130:.\Generated_Source\PSoC4/UART_PM.c **** * Function Name: UART_Wakeup
 131:.\Generated_Source\PSoC4/UART_PM.c **** ********************************************************************************
 132:.\Generated_Source\PSoC4/UART_PM.c **** *
 133:.\Generated_Source\PSoC4/UART_PM.c **** * Summary:
 134:.\Generated_Source\PSoC4/UART_PM.c **** *  Calls RestoreConfig function fucntion for selected mode.
 135:.\Generated_Source\PSoC4/UART_PM.c **** *
 136:.\Generated_Source\PSoC4/UART_PM.c **** * Parameters:
 137:.\Generated_Source\PSoC4/UART_PM.c **** *  None
 138:.\Generated_Source\PSoC4/UART_PM.c **** *
 139:.\Generated_Source\PSoC4/UART_PM.c **** * Return:
 140:.\Generated_Source\PSoC4/UART_PM.c **** *  None
 141:.\Generated_Source\PSoC4/UART_PM.c **** *
ARM GAS  C:\Users\wbz\AppData\Local\Temp\ccEtsw5V.s 			page 5


 142:.\Generated_Source\PSoC4/UART_PM.c **** *******************************************************************************/
 143:.\Generated_Source\PSoC4/UART_PM.c **** void UART_Wakeup(void)
 144:.\Generated_Source\PSoC4/UART_PM.c **** {
  84              		.loc 1 144 0
  85              		.cfi_startproc
  86 0000 80B5     		push	{r7, lr}
  87              	.LCFI2:
  88              		.cfi_def_cfa_offset 8
  89              		.cfi_offset 7, -8
  90              		.cfi_offset 14, -4
  91 0002 00AF     		add	r7, sp, #0
  92              	.LCFI3:
  93              		.cfi_def_cfa_register 7
 145:.\Generated_Source\PSoC4/UART_PM.c **** #if(UART_SCB_MODE_UNCONFIG_CONST_CFG)
 146:.\Generated_Source\PSoC4/UART_PM.c **** 
 147:.\Generated_Source\PSoC4/UART_PM.c ****     UART_EnableTxPinsInputBuffer();
 148:.\Generated_Source\PSoC4/UART_PM.c ****         
 149:.\Generated_Source\PSoC4/UART_PM.c ****     if(0u != UART_scbEnableWake)
 150:.\Generated_Source\PSoC4/UART_PM.c ****     {
 151:.\Generated_Source\PSoC4/UART_PM.c ****         if(UART_SCB_MODE_I2C_RUNTM_CFG)
 152:.\Generated_Source\PSoC4/UART_PM.c ****         {
 153:.\Generated_Source\PSoC4/UART_PM.c ****             UART_I2CRestoreConfig();
 154:.\Generated_Source\PSoC4/UART_PM.c ****         }
 155:.\Generated_Source\PSoC4/UART_PM.c ****         else if(UART_SCB_MODE_SPI_RUNTM_CFG)
 156:.\Generated_Source\PSoC4/UART_PM.c ****         {
 157:.\Generated_Source\PSoC4/UART_PM.c ****             UART_SpiRestoreConfig();
 158:.\Generated_Source\PSoC4/UART_PM.c ****         }
 159:.\Generated_Source\PSoC4/UART_PM.c ****         else if(UART_SCB_MODE_UART_RUNTM_CFG)
 160:.\Generated_Source\PSoC4/UART_PM.c ****         {
 161:.\Generated_Source\PSoC4/UART_PM.c ****             UART_UartRestoreConfig();
 162:.\Generated_Source\PSoC4/UART_PM.c ****         }
 163:.\Generated_Source\PSoC4/UART_PM.c ****         else if(UART_SCB_MODE_EZI2C_RUNTM_CFG)
 164:.\Generated_Source\PSoC4/UART_PM.c ****         {
 165:.\Generated_Source\PSoC4/UART_PM.c ****             UART_EzI2CRestoreConfig();
 166:.\Generated_Source\PSoC4/UART_PM.c ****         }
 167:.\Generated_Source\PSoC4/UART_PM.c ****         else
 168:.\Generated_Source\PSoC4/UART_PM.c ****         {
 169:.\Generated_Source\PSoC4/UART_PM.c ****             /* Unknown mode: do nothing */
 170:.\Generated_Source\PSoC4/UART_PM.c ****         }
 171:.\Generated_Source\PSoC4/UART_PM.c ****     }
 172:.\Generated_Source\PSoC4/UART_PM.c ****     else
 173:.\Generated_Source\PSoC4/UART_PM.c ****     {    
 174:.\Generated_Source\PSoC4/UART_PM.c ****         /* Restore enable state */
 175:.\Generated_Source\PSoC4/UART_PM.c ****         if(0u != UART_backup.enableState)
 176:.\Generated_Source\PSoC4/UART_PM.c ****         {
 177:.\Generated_Source\PSoC4/UART_PM.c ****             UART_Enable();
 178:.\Generated_Source\PSoC4/UART_PM.c ****         }
 179:.\Generated_Source\PSoC4/UART_PM.c ****     }
 180:.\Generated_Source\PSoC4/UART_PM.c **** 
 181:.\Generated_Source\PSoC4/UART_PM.c **** #else
 182:.\Generated_Source\PSoC4/UART_PM.c ****     
 183:.\Generated_Source\PSoC4/UART_PM.c ****     UART_EnableTxPinsInputBuffer();
  94              		.loc 1 183 0
  95 0004 FFF7FEFF 		bl	UART_EnableTxPinsInputBuffer
 184:.\Generated_Source\PSoC4/UART_PM.c ****         
 185:.\Generated_Source\PSoC4/UART_PM.c ****     #if defined (UART_I2C_WAKE_ENABLE_CONST) && (UART_I2C_WAKE_ENABLE_CONST)
 186:.\Generated_Source\PSoC4/UART_PM.c ****         UART_I2CRestoreConfig();
ARM GAS  C:\Users\wbz\AppData\Local\Temp\ccEtsw5V.s 			page 6


 187:.\Generated_Source\PSoC4/UART_PM.c ****         
 188:.\Generated_Source\PSoC4/UART_PM.c ****     #elif defined (UART_SPI_WAKE_ENABLE_CONST) && (UART_SPI_WAKE_ENABLE_CONST)
 189:.\Generated_Source\PSoC4/UART_PM.c ****         UART_SpiRestoreConfig();
 190:.\Generated_Source\PSoC4/UART_PM.c ****         
 191:.\Generated_Source\PSoC4/UART_PM.c ****     #elif defined (UART_UART_WAKE_ENABLE_CONST) && (UART_UART_WAKE_ENABLE_CONST)
 192:.\Generated_Source\PSoC4/UART_PM.c ****         UART_UartRestoreConfig();
 193:.\Generated_Source\PSoC4/UART_PM.c ****         
 194:.\Generated_Source\PSoC4/UART_PM.c ****     #elif defined (UART_EZI2C_WAKE_ENABLE_CONST) && (UART_EZI2C_WAKE_ENABLE_CONST)
 195:.\Generated_Source\PSoC4/UART_PM.c ****         UART_EzI2CRestoreConfig();
 196:.\Generated_Source\PSoC4/UART_PM.c ****     
 197:.\Generated_Source\PSoC4/UART_PM.c ****     #else
 198:.\Generated_Source\PSoC4/UART_PM.c ****         /* Check enable state */
 199:.\Generated_Source\PSoC4/UART_PM.c ****         if(0u != UART_backup.enableState)
  96              		.loc 1 199 0
  97 0008 034B     		ldr	r3, .L9
  98 000a 1B78     		ldrb	r3, [r3]
  99 000c 002B     		cmp	r3, #0
 100 000e 01D0     		beq	.L8
 200:.\Generated_Source\PSoC4/UART_PM.c ****         {
 201:.\Generated_Source\PSoC4/UART_PM.c ****             UART_Enable();
 101              		.loc 1 201 0
 102 0010 FFF7FEFF 		bl	UART_Enable
 103              	.L8:
 202:.\Generated_Source\PSoC4/UART_PM.c ****         }
 203:.\Generated_Source\PSoC4/UART_PM.c ****         
 204:.\Generated_Source\PSoC4/UART_PM.c ****     #endif /* (UART_I2C_WAKE_ENABLE_CONST) */
 205:.\Generated_Source\PSoC4/UART_PM.c **** 
 206:.\Generated_Source\PSoC4/UART_PM.c **** #endif /* (UART_SCB_MODE_UNCONFIG_CONST_CFG) */
 207:.\Generated_Source\PSoC4/UART_PM.c **** }
 104              		.loc 1 207 0
 105 0014 BD46     		mov	sp, r7
 106              		@ sp needed for prologue
 107 0016 80BD     		pop	{r7, pc}
 108              	.L10:
 109              		.align	2
 110              	.L9:
 111 0018 00000000 		.word	UART_backup
 112              		.cfi_endproc
 113              	.LFE1:
 114              		.size	UART_Wakeup, .-UART_Wakeup
 115              		.section	.text.UART_DisableTxPinsInputBuffer,"ax",%progbits
 116              		.align	2
 117              		.global	UART_DisableTxPinsInputBuffer
 118              		.code	16
 119              		.thumb_func
 120              		.type	UART_DisableTxPinsInputBuffer, %function
 121              	UART_DisableTxPinsInputBuffer:
 122              	.LFB2:
 208:.\Generated_Source\PSoC4/UART_PM.c **** 
 209:.\Generated_Source\PSoC4/UART_PM.c **** 
 210:.\Generated_Source\PSoC4/UART_PM.c **** /*******************************************************************************
 211:.\Generated_Source\PSoC4/UART_PM.c **** * Function Name: UART_DisableTxPinsInputBuffer
 212:.\Generated_Source\PSoC4/UART_PM.c **** ********************************************************************************
 213:.\Generated_Source\PSoC4/UART_PM.c **** *
 214:.\Generated_Source\PSoC4/UART_PM.c **** * Summary:
 215:.\Generated_Source\PSoC4/UART_PM.c **** *  Disables input buffers for TX pins. This action removes leakage current while
 216:.\Generated_Source\PSoC4/UART_PM.c **** *  low power mode (Cypress ID 149635).
ARM GAS  C:\Users\wbz\AppData\Local\Temp\ccEtsw5V.s 			page 7


 217:.\Generated_Source\PSoC4/UART_PM.c **** *   SCB mode is I2C and EZI2C: bus is pulled-up. Leave pins as it is.
 218:.\Generated_Source\PSoC4/UART_PM.c **** *   SCB mode SPI:
 219:.\Generated_Source\PSoC4/UART_PM.c **** *     Slave  - disable input buffer for MISO pin.
 220:.\Generated_Source\PSoC4/UART_PM.c **** *     Master - disable input buffer for all pins.
 221:.\Generated_Source\PSoC4/UART_PM.c **** *   SCB mode SmartCard: 
 222:.\Generated_Source\PSoC4/UART_PM.c **** *     Standard and IrDA - disable input buffer for TX pin.
 223:.\Generated_Source\PSoC4/UART_PM.c **** *     SmartCard - RX_TX pin is pulled-up. Leave pin as it is.
 224:.\Generated_Source\PSoC4/UART_PM.c **** *
 225:.\Generated_Source\PSoC4/UART_PM.c **** * Parameters:
 226:.\Generated_Source\PSoC4/UART_PM.c **** *  None
 227:.\Generated_Source\PSoC4/UART_PM.c **** *
 228:.\Generated_Source\PSoC4/UART_PM.c **** * Return:
 229:.\Generated_Source\PSoC4/UART_PM.c **** *  None
 230:.\Generated_Source\PSoC4/UART_PM.c **** *
 231:.\Generated_Source\PSoC4/UART_PM.c **** *******************************************************************************/
 232:.\Generated_Source\PSoC4/UART_PM.c **** void UART_DisableTxPinsInputBuffer(void)
 233:.\Generated_Source\PSoC4/UART_PM.c **** {
 123              		.loc 1 233 0
 124              		.cfi_startproc
 125 0000 80B5     		push	{r7, lr}
 126              	.LCFI4:
 127              		.cfi_def_cfa_offset 8
 128              		.cfi_offset 7, -8
 129              		.cfi_offset 14, -4
 130 0002 00AF     		add	r7, sp, #0
 131              	.LCFI5:
 132              		.cfi_def_cfa_register 7
 234:.\Generated_Source\PSoC4/UART_PM.c **** #if(UART_SCB_MODE_UNCONFIG_CONST_CFG)
 235:.\Generated_Source\PSoC4/UART_PM.c ****     
 236:.\Generated_Source\PSoC4/UART_PM.c ****     /* SCB mode is I2C and EZI2C: bus is pulled-up. Does nothing */
 237:.\Generated_Source\PSoC4/UART_PM.c ****        
 238:.\Generated_Source\PSoC4/UART_PM.c ****     if(UART_SCB_MODE_SPI_RUNTM_CFG)
 239:.\Generated_Source\PSoC4/UART_PM.c ****     {
 240:.\Generated_Source\PSoC4/UART_PM.c ****         if(0u != (UART_SPI_CTRL_REG & UART_SPI_CTRL_MASTER))
 241:.\Generated_Source\PSoC4/UART_PM.c ****         /* SPI Master */
 242:.\Generated_Source\PSoC4/UART_PM.c ****         {
 243:.\Generated_Source\PSoC4/UART_PM.c ****         #if(UART_MOSI_SCL_RX_WAKE_PIN)
 244:.\Generated_Source\PSoC4/UART_PM.c ****             UART_spi_mosi_i2c_scl_uart_rx_wake_INP_DIS |= \
 245:.\Generated_Source\PSoC4/UART_PM.c ****                                                                 UART_spi_mosi_i2c_scl_uart_rx_wake_
 246:.\Generated_Source\PSoC4/UART_PM.c ****         #endif /* (UART_MOSI_SCL_RX_WAKE_PIN) */
 247:.\Generated_Source\PSoC4/UART_PM.c **** 
 248:.\Generated_Source\PSoC4/UART_PM.c ****         #if(UART_MOSI_SCL_RX_PIN)
 249:.\Generated_Source\PSoC4/UART_PM.c ****             UART_spi_mosi_i2c_scl_uart_rx_INP_DIS |= UART_spi_mosi_i2c_scl_uart_rx_MASK;
 250:.\Generated_Source\PSoC4/UART_PM.c ****         #endif /* (UART_MOSI_SCL_RX_PIN) */
 251:.\Generated_Source\PSoC4/UART_PM.c **** 
 252:.\Generated_Source\PSoC4/UART_PM.c ****         #if(UART_MISO_SDA_TX_PIN)
 253:.\Generated_Source\PSoC4/UART_PM.c ****             UART_spi_miso_i2c_sda_uart_tx_INP_DIS |= UART_spi_miso_i2c_sda_uart_tx_MASK;
 254:.\Generated_Source\PSoC4/UART_PM.c ****         #endif /* (UART_MISO_SDA_TX_PIN_PIN) */
 255:.\Generated_Source\PSoC4/UART_PM.c **** 
 256:.\Generated_Source\PSoC4/UART_PM.c ****         #if(UART_SCLK_PIN)
 257:.\Generated_Source\PSoC4/UART_PM.c ****             UART_spi_sclk_INP_DIS |= UART_spi_sclk_MASK;
 258:.\Generated_Source\PSoC4/UART_PM.c ****         #endif /* (UART_SCLK_PIN) */
 259:.\Generated_Source\PSoC4/UART_PM.c **** 
 260:.\Generated_Source\PSoC4/UART_PM.c ****         #if(UART_SS0_PIN)
 261:.\Generated_Source\PSoC4/UART_PM.c ****             UART_spi_ss0_INP_DIS |= UART_spi_ss0_MASK;
 262:.\Generated_Source\PSoC4/UART_PM.c ****         #endif /* (UART_SS1_PIN) */
 263:.\Generated_Source\PSoC4/UART_PM.c **** 
ARM GAS  C:\Users\wbz\AppData\Local\Temp\ccEtsw5V.s 			page 8


 264:.\Generated_Source\PSoC4/UART_PM.c ****         #if(UART_SS1_PIN)
 265:.\Generated_Source\PSoC4/UART_PM.c ****             UART_spi_ss1_INP_DIS |= UART_spi_ss1_MASK;
 266:.\Generated_Source\PSoC4/UART_PM.c ****         #endif /* (UART_SS1_PIN) */
 267:.\Generated_Source\PSoC4/UART_PM.c **** 
 268:.\Generated_Source\PSoC4/UART_PM.c ****         #if(UART_SS2_PIN)
 269:.\Generated_Source\PSoC4/UART_PM.c ****             UART_spi_ss2_INP_DIS |= UART_spi_ss2_MASK;
 270:.\Generated_Source\PSoC4/UART_PM.c ****         #endif /* (UART_SS2_PIN) */
 271:.\Generated_Source\PSoC4/UART_PM.c **** 
 272:.\Generated_Source\PSoC4/UART_PM.c ****         #if(UART_SS3_PIN)
 273:.\Generated_Source\PSoC4/UART_PM.c ****             UART_spi_ss3_INP_DIS |= UART_spi_ss3_MASK;
 274:.\Generated_Source\PSoC4/UART_PM.c ****         #endif /* (UART_SS3_PIN) */
 275:.\Generated_Source\PSoC4/UART_PM.c ****         }
 276:.\Generated_Source\PSoC4/UART_PM.c ****         else
 277:.\Generated_Source\PSoC4/UART_PM.c ****         /* SPI Slave */
 278:.\Generated_Source\PSoC4/UART_PM.c ****         {
 279:.\Generated_Source\PSoC4/UART_PM.c ****         #if(UART_MISO_SDA_TX_PIN)
 280:.\Generated_Source\PSoC4/UART_PM.c ****             UART_spi_miso_i2c_sda_uart_tx_INP_DIS |= UART_spi_miso_i2c_sda_uart_tx_MASK;
 281:.\Generated_Source\PSoC4/UART_PM.c ****         #endif /* (UART_MISO_SDA_TX_PIN_PIN) */
 282:.\Generated_Source\PSoC4/UART_PM.c ****         }
 283:.\Generated_Source\PSoC4/UART_PM.c ****     }
 284:.\Generated_Source\PSoC4/UART_PM.c ****     else if (UART_SCB_MODE_UART_RUNTM_CFG)
 285:.\Generated_Source\PSoC4/UART_PM.c ****     {
 286:.\Generated_Source\PSoC4/UART_PM.c ****         if(UART_UART_CTRL_MODE_UART_SMARTCARD != 
 287:.\Generated_Source\PSoC4/UART_PM.c ****             (UART_UART_CTRL_REG & UART_UART_CTRL_MODE_MASK))
 288:.\Generated_Source\PSoC4/UART_PM.c ****         /* UART Standard or IrDA */
 289:.\Generated_Source\PSoC4/UART_PM.c ****         {
 290:.\Generated_Source\PSoC4/UART_PM.c ****         #if(UART_MISO_SDA_TX_PIN)
 291:.\Generated_Source\PSoC4/UART_PM.c ****             UART_spi_miso_i2c_sda_uart_tx_INP_DIS |= UART_spi_miso_i2c_sda_uart_tx_MASK;
 292:.\Generated_Source\PSoC4/UART_PM.c ****         #endif /* (UART_MISO_SDA_TX_PIN_PIN) */
 293:.\Generated_Source\PSoC4/UART_PM.c ****         }
 294:.\Generated_Source\PSoC4/UART_PM.c ****     }
 295:.\Generated_Source\PSoC4/UART_PM.c ****     else
 296:.\Generated_Source\PSoC4/UART_PM.c ****     {
 297:.\Generated_Source\PSoC4/UART_PM.c ****         /* Does nothing */
 298:.\Generated_Source\PSoC4/UART_PM.c ****     }
 299:.\Generated_Source\PSoC4/UART_PM.c ****     
 300:.\Generated_Source\PSoC4/UART_PM.c **** #else
 301:.\Generated_Source\PSoC4/UART_PM.c ****     
 302:.\Generated_Source\PSoC4/UART_PM.c ****     /* SCB mode is I2C and EZI2C: bus is pulled-up. Does nothing */
 303:.\Generated_Source\PSoC4/UART_PM.c ****         
 304:.\Generated_Source\PSoC4/UART_PM.c ****     /* SCB mode is SPI Master */
 305:.\Generated_Source\PSoC4/UART_PM.c ****     #if(UART_SPI_MASTER_PINS)
 306:.\Generated_Source\PSoC4/UART_PM.c ****         UART_sclk_m_INP_DIS |= UART_sclk_m_MASK;
 307:.\Generated_Source\PSoC4/UART_PM.c ****         UART_mosi_m_INP_DIS |= UART_mosi_m_MASK;
 308:.\Generated_Source\PSoC4/UART_PM.c ****         UART_miso_m_INP_DIS |= UART_miso_m_MASK;
 309:.\Generated_Source\PSoC4/UART_PM.c ****     #endif /* (UART_SPI_MASTER_PINS) */
 310:.\Generated_Source\PSoC4/UART_PM.c **** 
 311:.\Generated_Source\PSoC4/UART_PM.c ****     #if(UART_SPI_MASTER_SS0_PIN)
 312:.\Generated_Source\PSoC4/UART_PM.c ****         UART_ss0_m_INP_DIS |= UART_ss0_m_MASK;
 313:.\Generated_Source\PSoC4/UART_PM.c ****     #endif /* (UART_SPI_MASTER_SS0_PIN) */
 314:.\Generated_Source\PSoC4/UART_PM.c **** 
 315:.\Generated_Source\PSoC4/UART_PM.c ****     #if(UART_SPI_MASTER_SS1_PIN)
 316:.\Generated_Source\PSoC4/UART_PM.c ****         UART_ss1_m_INP_DIS |= UART_ss1_m_MASK;
 317:.\Generated_Source\PSoC4/UART_PM.c ****     #endif /* (UART_SPI_MASTER_SS1_PIN) */
 318:.\Generated_Source\PSoC4/UART_PM.c **** 
 319:.\Generated_Source\PSoC4/UART_PM.c ****     #if(UART_SPI_MASTER_SS2_PIN)
 320:.\Generated_Source\PSoC4/UART_PM.c ****         UART_ss2_m_INP_DIS |= UART_ss2_m_MASK;
ARM GAS  C:\Users\wbz\AppData\Local\Temp\ccEtsw5V.s 			page 9


 321:.\Generated_Source\PSoC4/UART_PM.c ****     #endif /* (UART_SPI_MASTER_SS2_PIN) */
 322:.\Generated_Source\PSoC4/UART_PM.c **** 
 323:.\Generated_Source\PSoC4/UART_PM.c ****     #if(UART_SPI_MASTER_SS3_PIN)
 324:.\Generated_Source\PSoC4/UART_PM.c ****         UART_ss3_m_INP_DIS |= UART_ss3_m_MASK;
 325:.\Generated_Source\PSoC4/UART_PM.c ****     #endif /* (UART_SPI_MASTER_SS3_PIN) */
 326:.\Generated_Source\PSoC4/UART_PM.c ****     
 327:.\Generated_Source\PSoC4/UART_PM.c ****     /* SCB mode is SPI Slave */
 328:.\Generated_Source\PSoC4/UART_PM.c ****     #if(UART_SPI_SLAVE_PINS)
 329:.\Generated_Source\PSoC4/UART_PM.c ****         UART_miso_s_INP_DIS |= UART_miso_s_MASK;
 330:.\Generated_Source\PSoC4/UART_PM.c ****     #endif /* (UART_SPI_SLAVE_PINS) */
 331:.\Generated_Source\PSoC4/UART_PM.c **** 
 332:.\Generated_Source\PSoC4/UART_PM.c ****     /* SCB mode is UART */
 333:.\Generated_Source\PSoC4/UART_PM.c ****     #if(UART_UART_TX_PIN)
 334:.\Generated_Source\PSoC4/UART_PM.c ****         UART_tx_INP_DIS |= UART_tx_MASK;
 133              		.loc 1 334 0
 134 0004 034B     		ldr	r3, .L13
 135 0006 034A     		ldr	r2, .L13
 136 0008 1168     		ldr	r1, [r2]
 137 000a 0222     		mov	r2, #2
 138 000c 0A43     		orr	r2, r2, r1
 139 000e 1A60     		str	r2, [r3]
 335:.\Generated_Source\PSoC4/UART_PM.c ****     #endif /* (UART_UART_TX_PIN) */
 336:.\Generated_Source\PSoC4/UART_PM.c **** 
 337:.\Generated_Source\PSoC4/UART_PM.c **** #endif /* (UART_SCB_MODE_UNCONFIG_CONST_CFG) */
 338:.\Generated_Source\PSoC4/UART_PM.c **** }
 140              		.loc 1 338 0
 141 0010 BD46     		mov	sp, r7
 142              		@ sp needed for prologue
 143 0012 80BD     		pop	{r7, pc}
 144              	.L14:
 145              		.align	2
 146              	.L13:
 147 0014 18040440 		.word	1074005016
 148              		.cfi_endproc
 149              	.LFE2:
 150              		.size	UART_DisableTxPinsInputBuffer, .-UART_DisableTxPinsInputBuffer
 151              		.section	.text.UART_EnableTxPinsInputBuffer,"ax",%progbits
 152              		.align	2
 153              		.global	UART_EnableTxPinsInputBuffer
 154              		.code	16
 155              		.thumb_func
 156              		.type	UART_EnableTxPinsInputBuffer, %function
 157              	UART_EnableTxPinsInputBuffer:
 158              	.LFB3:
 339:.\Generated_Source\PSoC4/UART_PM.c **** 
 340:.\Generated_Source\PSoC4/UART_PM.c **** 
 341:.\Generated_Source\PSoC4/UART_PM.c **** /*******************************************************************************
 342:.\Generated_Source\PSoC4/UART_PM.c **** * Function Name: UART_EnableTxPinsInputBuffer
 343:.\Generated_Source\PSoC4/UART_PM.c **** ********************************************************************************
 344:.\Generated_Source\PSoC4/UART_PM.c **** *
 345:.\Generated_Source\PSoC4/UART_PM.c **** * Summary:
 346:.\Generated_Source\PSoC4/UART_PM.c **** *  Enables input buffers for TX pins. Restore changes done byte
 347:.\Generated_Source\PSoC4/UART_PM.c **** *UART_DisableTxPinsInputBuffer.
 348:.\Generated_Source\PSoC4/UART_PM.c **** *
 349:.\Generated_Source\PSoC4/UART_PM.c **** * Parameters:
 350:.\Generated_Source\PSoC4/UART_PM.c **** *  None
 351:.\Generated_Source\PSoC4/UART_PM.c **** *
ARM GAS  C:\Users\wbz\AppData\Local\Temp\ccEtsw5V.s 			page 10


 352:.\Generated_Source\PSoC4/UART_PM.c **** * Return:
 353:.\Generated_Source\PSoC4/UART_PM.c **** *  None
 354:.\Generated_Source\PSoC4/UART_PM.c **** *
 355:.\Generated_Source\PSoC4/UART_PM.c **** *******************************************************************************/
 356:.\Generated_Source\PSoC4/UART_PM.c **** void UART_EnableTxPinsInputBuffer(void)
 357:.\Generated_Source\PSoC4/UART_PM.c **** {
 159              		.loc 1 357 0
 160              		.cfi_startproc
 161 0000 80B5     		push	{r7, lr}
 162              	.LCFI6:
 163              		.cfi_def_cfa_offset 8
 164              		.cfi_offset 7, -8
 165              		.cfi_offset 14, -4
 166 0002 00AF     		add	r7, sp, #0
 167              	.LCFI7:
 168              		.cfi_def_cfa_register 7
 358:.\Generated_Source\PSoC4/UART_PM.c **** #if(UART_SCB_MODE_UNCONFIG_CONST_CFG)
 359:.\Generated_Source\PSoC4/UART_PM.c ****     if(UART_SCB_MODE_SPI_RUNTM_CFG)
 360:.\Generated_Source\PSoC4/UART_PM.c ****     {
 361:.\Generated_Source\PSoC4/UART_PM.c ****         if(0u != (UART_SPI_CTRL_REG & UART_SPI_CTRL_MASTER))
 362:.\Generated_Source\PSoC4/UART_PM.c ****         /* SPI Master */
 363:.\Generated_Source\PSoC4/UART_PM.c ****         {
 364:.\Generated_Source\PSoC4/UART_PM.c ****         #if(UART_MOSI_SCL_RX_WAKE_PIN)
 365:.\Generated_Source\PSoC4/UART_PM.c ****             UART_spi_mosi_i2c_scl_uart_rx_wake_INP_DIS &= \
 366:.\Generated_Source\PSoC4/UART_PM.c ****                                             (uint32) ~((uint32) UART_spi_mosi_i2c_scl_uart_rx_wake_
 367:.\Generated_Source\PSoC4/UART_PM.c ****         #endif /* (UART_MOSI_SCL_RX_WAKE_PIN) */
 368:.\Generated_Source\PSoC4/UART_PM.c **** 
 369:.\Generated_Source\PSoC4/UART_PM.c ****         #if(UART_MOSI_SCL_RX_PIN)
 370:.\Generated_Source\PSoC4/UART_PM.c ****             UART_spi_mosi_i2c_scl_uart_rx_INP_DIS &= \
 371:.\Generated_Source\PSoC4/UART_PM.c ****                                             (uint32) ~((uint32) UART_spi_mosi_i2c_scl_uart_rx_MASK)
 372:.\Generated_Source\PSoC4/UART_PM.c ****         #endif /* (UART_MOSI_SCL_RX_PIN) */
 373:.\Generated_Source\PSoC4/UART_PM.c **** 
 374:.\Generated_Source\PSoC4/UART_PM.c ****         #if(UART_MISO_SDA_TX_PIN)
 375:.\Generated_Source\PSoC4/UART_PM.c ****             UART_spi_miso_i2c_sda_uart_tx_INP_DIS &= \
 376:.\Generated_Source\PSoC4/UART_PM.c ****                                             (uint32) ~((uint32) UART_spi_miso_i2c_sda_uart_tx_MASK)
 377:.\Generated_Source\PSoC4/UART_PM.c ****         #endif /* (UART_MISO_SDA_TX_PIN_PIN) */
 378:.\Generated_Source\PSoC4/UART_PM.c **** 
 379:.\Generated_Source\PSoC4/UART_PM.c ****         #if(UART_SCLK_PIN)
 380:.\Generated_Source\PSoC4/UART_PM.c ****             UART_spi_sclk_INP_DIS &= (uint32) ~((uint32) UART_spi_sclk_MASK);
 381:.\Generated_Source\PSoC4/UART_PM.c ****         #endif /* (UART_SCLK_PIN) */
 382:.\Generated_Source\PSoC4/UART_PM.c **** 
 383:.\Generated_Source\PSoC4/UART_PM.c ****         #if(UART_SS0_PIN)
 384:.\Generated_Source\PSoC4/UART_PM.c ****             UART_spi_ss0_INP_DIS &= (uint32) ~((uint32) UART_spi_ss0_MASK);
 385:.\Generated_Source\PSoC4/UART_PM.c ****         #endif /* (UART_SS1_PIN) */
 386:.\Generated_Source\PSoC4/UART_PM.c **** 
 387:.\Generated_Source\PSoC4/UART_PM.c ****         #if(UART_SS1_PIN)
 388:.\Generated_Source\PSoC4/UART_PM.c ****             UART_spi_ss1_INP_DIS &= (uint32) ~((uint32) UART_spi_ss1_MASK);
 389:.\Generated_Source\PSoC4/UART_PM.c ****         #endif /* (UART_SS1_PIN) */
 390:.\Generated_Source\PSoC4/UART_PM.c **** 
 391:.\Generated_Source\PSoC4/UART_PM.c ****         #if(UART_SS2_PIN)
 392:.\Generated_Source\PSoC4/UART_PM.c ****             UART_spi_ss2_INP_DIS &= (uint32) ~((uint32) UART_spi_ss2_MASK);
 393:.\Generated_Source\PSoC4/UART_PM.c ****         #endif /* (UART_SS2_PIN) */
 394:.\Generated_Source\PSoC4/UART_PM.c **** 
 395:.\Generated_Source\PSoC4/UART_PM.c ****         #if(UART_SS3_PIN)
 396:.\Generated_Source\PSoC4/UART_PM.c ****             UART_spi_ss3_INP_DIS &= (uint32) ~((uint32) UART_spi_ss3_MASK);
 397:.\Generated_Source\PSoC4/UART_PM.c ****         #endif /* (UART_SS3_PIN) */
 398:.\Generated_Source\PSoC4/UART_PM.c ****         }
ARM GAS  C:\Users\wbz\AppData\Local\Temp\ccEtsw5V.s 			page 11


 399:.\Generated_Source\PSoC4/UART_PM.c ****         else
 400:.\Generated_Source\PSoC4/UART_PM.c ****         /* SPI Slave */
 401:.\Generated_Source\PSoC4/UART_PM.c ****         {
 402:.\Generated_Source\PSoC4/UART_PM.c ****         #if(UART_MISO_SDA_TX_PIN)
 403:.\Generated_Source\PSoC4/UART_PM.c ****             UART_spi_miso_i2c_sda_uart_tx_INP_DIS &= \
 404:.\Generated_Source\PSoC4/UART_PM.c ****                                                 (uint32) ~((uint32) UART_spi_miso_i2c_sda_uart_tx_M
 405:.\Generated_Source\PSoC4/UART_PM.c ****         #endif /* (UART_MISO_SDA_TX_PIN_PIN) */
 406:.\Generated_Source\PSoC4/UART_PM.c ****         }
 407:.\Generated_Source\PSoC4/UART_PM.c ****     }
 408:.\Generated_Source\PSoC4/UART_PM.c ****     else if (UART_SCB_MODE_UART_RUNTM_CFG)
 409:.\Generated_Source\PSoC4/UART_PM.c ****     {
 410:.\Generated_Source\PSoC4/UART_PM.c ****         if(UART_UART_CTRL_MODE_UART_SMARTCARD != 
 411:.\Generated_Source\PSoC4/UART_PM.c ****                 (UART_UART_CTRL_REG & UART_UART_CTRL_MODE_MASK))
 412:.\Generated_Source\PSoC4/UART_PM.c ****         /* UART Standard or IrDA */
 413:.\Generated_Source\PSoC4/UART_PM.c ****         {
 414:.\Generated_Source\PSoC4/UART_PM.c ****         #if(UART_MISO_SDA_TX_PIN)
 415:.\Generated_Source\PSoC4/UART_PM.c ****             UART_spi_miso_i2c_sda_uart_tx_INP_DIS &= \
 416:.\Generated_Source\PSoC4/UART_PM.c ****                                                 (uint32) ~((uint32) UART_spi_miso_i2c_sda_uart_tx_M
 417:.\Generated_Source\PSoC4/UART_PM.c ****         #endif /* (UART_MISO_SDA_TX_PIN_PIN) */
 418:.\Generated_Source\PSoC4/UART_PM.c ****         }
 419:.\Generated_Source\PSoC4/UART_PM.c ****     }
 420:.\Generated_Source\PSoC4/UART_PM.c ****     else
 421:.\Generated_Source\PSoC4/UART_PM.c ****     {
 422:.\Generated_Source\PSoC4/UART_PM.c ****         /* Does nothing */
 423:.\Generated_Source\PSoC4/UART_PM.c ****     }
 424:.\Generated_Source\PSoC4/UART_PM.c ****     
 425:.\Generated_Source\PSoC4/UART_PM.c **** #else
 426:.\Generated_Source\PSoC4/UART_PM.c ****         
 427:.\Generated_Source\PSoC4/UART_PM.c ****     /* SCB mode is SPI Master */
 428:.\Generated_Source\PSoC4/UART_PM.c ****     #if(UART_SPI_MASTER_PINS)
 429:.\Generated_Source\PSoC4/UART_PM.c ****         UART_sclk_m_INP_DIS &= (uint32) ~((uint32) UART_sclk_m_MASK);
 430:.\Generated_Source\PSoC4/UART_PM.c ****         UART_mosi_m_INP_DIS &= (uint32) ~((uint32) UART_mosi_m_MASK);
 431:.\Generated_Source\PSoC4/UART_PM.c ****         UART_miso_m_INP_DIS &= (uint32) ~((uint32) UART_miso_m_MASK);
 432:.\Generated_Source\PSoC4/UART_PM.c ****     #endif /* (UART_SPI_MASTER_PINS) */
 433:.\Generated_Source\PSoC4/UART_PM.c **** 
 434:.\Generated_Source\PSoC4/UART_PM.c ****     #if(UART_SPI_MASTER_SS0_PIN)
 435:.\Generated_Source\PSoC4/UART_PM.c ****         UART_ss0_m_INP_DIS &= (uint32) ~((uint32) UART_ss0_m_MASK);
 436:.\Generated_Source\PSoC4/UART_PM.c ****     #endif /* (UART_SPI_MASTER_SS0_PIN) */
 437:.\Generated_Source\PSoC4/UART_PM.c **** 
 438:.\Generated_Source\PSoC4/UART_PM.c ****     #if(UART_SPI_MASTER_SS1_PIN)
 439:.\Generated_Source\PSoC4/UART_PM.c ****         UART_ss1_m_INP_DIS &= (uint32) ~((uint32) UART_ss1_m_MASK);
 440:.\Generated_Source\PSoC4/UART_PM.c ****     #endif /* (UART_SPI_MASTER_SS1_PIN) */
 441:.\Generated_Source\PSoC4/UART_PM.c **** 
 442:.\Generated_Source\PSoC4/UART_PM.c ****     #if(UART_SPI_MASTER_SS2_PIN)
 443:.\Generated_Source\PSoC4/UART_PM.c ****         UART_ss2_m_INP_DIS &= (uint32) ~((uint32) UART_ss2_m_MASK);
 444:.\Generated_Source\PSoC4/UART_PM.c ****     #endif /* (UART_SPI_MASTER_SS2_PIN) */
 445:.\Generated_Source\PSoC4/UART_PM.c **** 
 446:.\Generated_Source\PSoC4/UART_PM.c ****     #if(UART_SPI_MASTER_SS3_PIN)
 447:.\Generated_Source\PSoC4/UART_PM.c ****         UART_ss3_m_INP_DIS &= (uint32) ~((uint32) UART_ss3_m_MASK);
 448:.\Generated_Source\PSoC4/UART_PM.c ****     #endif /* (UART_SPI_MASTER_SS3_PIN) */
 449:.\Generated_Source\PSoC4/UART_PM.c ****     
 450:.\Generated_Source\PSoC4/UART_PM.c ****     /* SCB mode is SPI Slave */
 451:.\Generated_Source\PSoC4/UART_PM.c ****     #if(UART_SPI_SLAVE_PINS)
 452:.\Generated_Source\PSoC4/UART_PM.c ****         UART_miso_s_INP_DIS &= (uint32) ~((uint32) UART_miso_s_MASK);
 453:.\Generated_Source\PSoC4/UART_PM.c ****     #endif /* (UART_SPI_SLAVE_PINS) */
 454:.\Generated_Source\PSoC4/UART_PM.c **** 
 455:.\Generated_Source\PSoC4/UART_PM.c ****     /* SCB mode is UART */
ARM GAS  C:\Users\wbz\AppData\Local\Temp\ccEtsw5V.s 			page 12


 456:.\Generated_Source\PSoC4/UART_PM.c ****     #if(UART_UART_TX_PIN)
 457:.\Generated_Source\PSoC4/UART_PM.c ****         UART_tx_INP_DIS &= (uint32) ~((uint32) UART_tx_MASK);
 169              		.loc 1 457 0
 170 0004 034B     		ldr	r3, .L17
 171 0006 034A     		ldr	r2, .L17
 172 0008 1268     		ldr	r2, [r2]
 173 000a 0221     		mov	r1, #2
 174 000c 8A43     		bic	r2, r2, r1
 175 000e 1A60     		str	r2, [r3]
 458:.\Generated_Source\PSoC4/UART_PM.c ****     #endif /* (UART_UART_TX_PIN) */
 459:.\Generated_Source\PSoC4/UART_PM.c **** 
 460:.\Generated_Source\PSoC4/UART_PM.c **** #endif /* (UART_SCB_MODE_UNCONFIG_CONST_CFG) */
 461:.\Generated_Source\PSoC4/UART_PM.c **** }
 176              		.loc 1 461 0
 177 0010 BD46     		mov	sp, r7
 178              		@ sp needed for prologue
 179 0012 80BD     		pop	{r7, pc}
 180              	.L18:
 181              		.align	2
 182              	.L17:
 183 0014 18040440 		.word	1074005016
 184              		.cfi_endproc
 185              	.LFE3:
 186              		.size	UART_EnableTxPinsInputBuffer, .-UART_EnableTxPinsInputBuffer
 187              		.text
 188              	.Letext0: