ARM GAS  C:\Users\wbz\AppData\Local\Temp\ccSKsVnf.s 			page 1


   1              		.cpu cortex-m0
   2              		.fpu softvfp
   3              		.eabi_attribute 20, 1
   4              		.eabi_attribute 21, 1
   5              		.eabi_attribute 23, 3
   6              		.eabi_attribute 24, 1
   7              		.eabi_attribute 25, 1
   8              		.eabi_attribute 26, 1
   9              		.eabi_attribute 30, 6
  10              		.eabi_attribute 18, 4
  11              		.code	16
  12              		.file	"UART_UART.c"
  19 0000 13010000 		.text
  19      02006200 
  19      00000201 
  19      FB0E0D00 
  19      01010101 
  20              	.Ltext0:
  21              		.cfi_sections	.debug_frame
  22              		.section	.text.UART_UartInit,"ax",%progbits
  23              		.align	2
  24              		.global	UART_UartInit
  25              		.code	16
  26              		.thumb_func
  27              		.type	UART_UartInit, %function
  28              	UART_UartInit:
  29              	.LFB0:
  30              		.file 1 ".\\Generated_Source\\PSoC4\\UART_UART.c"
   1:.\Generated_Source\PSoC4/UART_UART.c **** /*******************************************************************************
   2:.\Generated_Source\PSoC4/UART_UART.c **** * File Name: UART_UART.c
   3:.\Generated_Source\PSoC4/UART_UART.c **** * Version 1.10
   4:.\Generated_Source\PSoC4/UART_UART.c **** *
   5:.\Generated_Source\PSoC4/UART_UART.c **** * Description:
   6:.\Generated_Source\PSoC4/UART_UART.c **** *  This file provides the source code to the API for the SCB Component in
   7:.\Generated_Source\PSoC4/UART_UART.c **** *  UART mode.
   8:.\Generated_Source\PSoC4/UART_UART.c **** *
   9:.\Generated_Source\PSoC4/UART_UART.c **** * Note:
  10:.\Generated_Source\PSoC4/UART_UART.c **** *
  11:.\Generated_Source\PSoC4/UART_UART.c **** *******************************************************************************
  12:.\Generated_Source\PSoC4/UART_UART.c **** * Copyright 2013, Cypress Semiconductor Corporation.  All rights reserved.
  13:.\Generated_Source\PSoC4/UART_UART.c **** * You may use this file only in accordance with the license, terms, conditions,
  14:.\Generated_Source\PSoC4/UART_UART.c **** * disclaimers, and limitations in the end user license agreement accompanying
  15:.\Generated_Source\PSoC4/UART_UART.c **** * the software package with which this file was provided.
  16:.\Generated_Source\PSoC4/UART_UART.c **** *******************************************************************************/
  17:.\Generated_Source\PSoC4/UART_UART.c **** 
  18:.\Generated_Source\PSoC4/UART_UART.c **** #include "UART_PVT.h"
  19:.\Generated_Source\PSoC4/UART_UART.c **** #include "UART_SPI_UART_PVT.h"
  20:.\Generated_Source\PSoC4/UART_UART.c **** 
  21:.\Generated_Source\PSoC4/UART_UART.c **** 
  22:.\Generated_Source\PSoC4/UART_UART.c **** #if(UART_SCB_MODE_UNCONFIG_CONST_CFG)
  23:.\Generated_Source\PSoC4/UART_UART.c **** 
ARM GAS  C:\Users\wbz\AppData\Local\Temp\ccSKsVnf.s 			page 2


  24:.\Generated_Source\PSoC4/UART_UART.c ****     /***************************************
  25:.\Generated_Source\PSoC4/UART_UART.c ****     *  Config Structure Initialization
  26:.\Generated_Source\PSoC4/UART_UART.c ****     ***************************************/
  27:.\Generated_Source\PSoC4/UART_UART.c **** 
  28:.\Generated_Source\PSoC4/UART_UART.c ****     const UART_UART_INIT_STRUCT UART_configUart =
  29:.\Generated_Source\PSoC4/UART_UART.c ****     {
  30:.\Generated_Source\PSoC4/UART_UART.c ****         UART_UART_SUB_MODE,
  31:.\Generated_Source\PSoC4/UART_UART.c ****         UART_UART_DIRECTION,
  32:.\Generated_Source\PSoC4/UART_UART.c ****         UART_UART_DATA_BITS_NUM,
  33:.\Generated_Source\PSoC4/UART_UART.c ****         UART_UART_PARITY_TYPE,
  34:.\Generated_Source\PSoC4/UART_UART.c ****         UART_UART_STOP_BITS_NUM,
  35:.\Generated_Source\PSoC4/UART_UART.c ****         UART_UART_OVS_FACTOR,
  36:.\Generated_Source\PSoC4/UART_UART.c ****         UART_UART_IRDA_LOW_POWER,
  37:.\Generated_Source\PSoC4/UART_UART.c ****         UART_UART_MEDIAN_FILTER_ENABLE,
  38:.\Generated_Source\PSoC4/UART_UART.c ****         UART_UART_RETRY_ON_NACK,
  39:.\Generated_Source\PSoC4/UART_UART.c ****         UART_UART_IRDA_POLARITY,
  40:.\Generated_Source\PSoC4/UART_UART.c ****         UART_UART_DROP_ON_PARITY_ERR,
  41:.\Generated_Source\PSoC4/UART_UART.c ****         UART_UART_DROP_ON_FRAME_ERR,
  42:.\Generated_Source\PSoC4/UART_UART.c ****         UART_UART_WAKE_ENABLE,
  43:.\Generated_Source\PSoC4/UART_UART.c ****         0u,
  44:.\Generated_Source\PSoC4/UART_UART.c ****         NULL,
  45:.\Generated_Source\PSoC4/UART_UART.c ****         0u,
  46:.\Generated_Source\PSoC4/UART_UART.c ****         NULL,
  47:.\Generated_Source\PSoC4/UART_UART.c ****         UART_UART_MP_MODE_ENABLE,
  48:.\Generated_Source\PSoC4/UART_UART.c ****         UART_UART_MP_ACCEPT_ADDRESS,
  49:.\Generated_Source\PSoC4/UART_UART.c ****         UART_UART_MP_RX_ADDRESS,
  50:.\Generated_Source\PSoC4/UART_UART.c ****         UART_UART_MP_RX_ADDRESS_MASK,
  51:.\Generated_Source\PSoC4/UART_UART.c ****         UART_SCB_IRQ_INTERNAL,
  52:.\Generated_Source\PSoC4/UART_UART.c ****         UART_UART_INTR_RX_MASK,
  53:.\Generated_Source\PSoC4/UART_UART.c ****         UART_UART_RX_TRIGGER_LEVEL,
  54:.\Generated_Source\PSoC4/UART_UART.c ****         UART_UART_INTR_TX_MASK,
  55:.\Generated_Source\PSoC4/UART_UART.c ****         UART_UART_TX_TRIGGER_LEVEL
  56:.\Generated_Source\PSoC4/UART_UART.c ****     };
  57:.\Generated_Source\PSoC4/UART_UART.c **** 
  58:.\Generated_Source\PSoC4/UART_UART.c **** 
  59:.\Generated_Source\PSoC4/UART_UART.c ****     /*******************************************************************************
  60:.\Generated_Source\PSoC4/UART_UART.c ****     * Function Name: UART_UartInit
  61:.\Generated_Source\PSoC4/UART_UART.c ****     ********************************************************************************
  62:.\Generated_Source\PSoC4/UART_UART.c ****     *
  63:.\Generated_Source\PSoC4/UART_UART.c ****     * Summary:
  64:.\Generated_Source\PSoC4/UART_UART.c ****     *  Configures the SCB for SPI operation.
  65:.\Generated_Source\PSoC4/UART_UART.c ****     *
  66:.\Generated_Source\PSoC4/UART_UART.c ****     * Parameters:
  67:.\Generated_Source\PSoC4/UART_UART.c ****     *  config:  Pointer to a structure that contains the following ordered list of
  68:.\Generated_Source\PSoC4/UART_UART.c ****     *           fields. These fields match the selections available in the
  69:.\Generated_Source\PSoC4/UART_UART.c ****     *           customizer.
  70:.\Generated_Source\PSoC4/UART_UART.c ****     *
  71:.\Generated_Source\PSoC4/UART_UART.c ****     * Return:
  72:.\Generated_Source\PSoC4/UART_UART.c ****     *  None
  73:.\Generated_Source\PSoC4/UART_UART.c ****     *
  74:.\Generated_Source\PSoC4/UART_UART.c ****     *******************************************************************************/
  75:.\Generated_Source\PSoC4/UART_UART.c ****     void UART_UartInit(const UART_UART_INIT_STRUCT *config)
  76:.\Generated_Source\PSoC4/UART_UART.c ****     {
  77:.\Generated_Source\PSoC4/UART_UART.c ****         if(NULL == config)
  78:.\Generated_Source\PSoC4/UART_UART.c ****         {
  79:.\Generated_Source\PSoC4/UART_UART.c ****             CYASSERT(0u != 0u); /* Halt execution due bad fucntion parameter */
  80:.\Generated_Source\PSoC4/UART_UART.c ****         }
ARM GAS  C:\Users\wbz\AppData\Local\Temp\ccSKsVnf.s 			page 3


  81:.\Generated_Source\PSoC4/UART_UART.c ****         else
  82:.\Generated_Source\PSoC4/UART_UART.c ****         {
  83:.\Generated_Source\PSoC4/UART_UART.c ****             /* Configure pins */
  84:.\Generated_Source\PSoC4/UART_UART.c ****             UART_SetPins(UART_SCB_MODE_UART, config->mode, config->direction);
  85:.\Generated_Source\PSoC4/UART_UART.c **** 
  86:.\Generated_Source\PSoC4/UART_UART.c ****             /* Store internal configuration */
  87:.\Generated_Source\PSoC4/UART_UART.c ****             UART_scbMode       = (uint8) UART_SCB_MODE_UART;
  88:.\Generated_Source\PSoC4/UART_UART.c ****             UART_scbEnableWake = (uint8) config->enableWake;
  89:.\Generated_Source\PSoC4/UART_UART.c ****             UART_scbEnableIntr = (uint8) config->enableInterrupt;
  90:.\Generated_Source\PSoC4/UART_UART.c **** 
  91:.\Generated_Source\PSoC4/UART_UART.c ****             /* Set RX direction internal variables */
  92:.\Generated_Source\PSoC4/UART_UART.c ****             UART_rxBuffer      =         config->rxBuffer;
  93:.\Generated_Source\PSoC4/UART_UART.c ****             UART_rxDataBits    = (uint8) config->dataBits;
  94:.\Generated_Source\PSoC4/UART_UART.c ****             UART_rxBufferSize  = (uint8) config->rxBufferSize;
  95:.\Generated_Source\PSoC4/UART_UART.c **** 
  96:.\Generated_Source\PSoC4/UART_UART.c ****             /* Set TX direction internal variables */
  97:.\Generated_Source\PSoC4/UART_UART.c ****             UART_txBuffer      =         config->txBuffer;
  98:.\Generated_Source\PSoC4/UART_UART.c ****             UART_txDataBits    = (uint8) config->dataBits;
  99:.\Generated_Source\PSoC4/UART_UART.c ****             UART_txBufferSize  = (uint8) config->txBufferSize;
 100:.\Generated_Source\PSoC4/UART_UART.c **** 
 101:.\Generated_Source\PSoC4/UART_UART.c **** 
 102:.\Generated_Source\PSoC4/UART_UART.c ****             /* Configure UART interface */
 103:.\Generated_Source\PSoC4/UART_UART.c ****             if(UART_UART_MODE_IRDA == config->mode)
 104:.\Generated_Source\PSoC4/UART_UART.c ****             {
 105:.\Generated_Source\PSoC4/UART_UART.c ****                 /* OVS settigns: IrDA */
 106:.\Generated_Source\PSoC4/UART_UART.c ****                 UART_CTRL_REG  = ((0u != config->enableIrdaLowPower) ?
 107:.\Generated_Source\PSoC4/UART_UART.c ****                                                 (UART_UART_GET_CTRL_OVS_IRDA_LP(config->oversample)
 108:.\Generated_Source\PSoC4/UART_UART.c ****                                                 (UART_CTRL_OVS_IRDA_OVS16));
 109:.\Generated_Source\PSoC4/UART_UART.c ****             }
 110:.\Generated_Source\PSoC4/UART_UART.c ****             else
 111:.\Generated_Source\PSoC4/UART_UART.c ****             {
 112:.\Generated_Source\PSoC4/UART_UART.c ****                 /* OVS settigns: UART and SmartCard */
 113:.\Generated_Source\PSoC4/UART_UART.c ****                 UART_CTRL_REG  = UART_GET_CTRL_OVS(config->oversample);
 114:.\Generated_Source\PSoC4/UART_UART.c ****             }
 115:.\Generated_Source\PSoC4/UART_UART.c **** 
 116:.\Generated_Source\PSoC4/UART_UART.c ****             UART_CTRL_REG     |= UART_GET_CTRL_ADDR_ACCEPT(config->multiprocAcceptAddr) |
 117:.\Generated_Source\PSoC4/UART_UART.c ****                                              UART_CTRL_UART;
 118:.\Generated_Source\PSoC4/UART_UART.c **** 
 119:.\Generated_Source\PSoC4/UART_UART.c ****             /* Confiuure submode: UART, SmartCard or IrDA */
 120:.\Generated_Source\PSoC4/UART_UART.c ****             UART_UART_CTRL_REG = UART_GET_UART_CTRL_MODE(config->mode);
 121:.\Generated_Source\PSoC4/UART_UART.c **** 
 122:.\Generated_Source\PSoC4/UART_UART.c ****             /* Configure RX direction */
 123:.\Generated_Source\PSoC4/UART_UART.c ****             UART_UART_RX_CTRL_REG = UART_GET_UART_RX_CTRL_MODE(config->stopBits)              |
 124:.\Generated_Source\PSoC4/UART_UART.c ****                                         UART_GET_UART_RX_CTRL_POLARITY(config->enableInvertedRx)   
 125:.\Generated_Source\PSoC4/UART_UART.c ****                                         UART_GET_UART_RX_CTRL_MP_MODE(config->enableMultiproc)     
 126:.\Generated_Source\PSoC4/UART_UART.c ****                                         UART_GET_UART_RX_CTRL_DROP_ON_PARITY_ERR(config->dropOnPari
 127:.\Generated_Source\PSoC4/UART_UART.c ****                                         UART_GET_UART_RX_CTRL_DROP_ON_FRAME_ERR(config->dropOnFrame
 128:.\Generated_Source\PSoC4/UART_UART.c **** 
 129:.\Generated_Source\PSoC4/UART_UART.c ****             if(UART_UART_PARITY_NONE != config->parity)
 130:.\Generated_Source\PSoC4/UART_UART.c ****             {
 131:.\Generated_Source\PSoC4/UART_UART.c ****                UART_UART_RX_CTRL_REG |= UART_GET_UART_RX_CTRL_PARITY(config->parity) |
 132:.\Generated_Source\PSoC4/UART_UART.c ****                                                     UART_UART_RX_CTRL_PARITY_ENABLED;
 133:.\Generated_Source\PSoC4/UART_UART.c ****             }
 134:.\Generated_Source\PSoC4/UART_UART.c **** 
 135:.\Generated_Source\PSoC4/UART_UART.c ****             UART_RX_CTRL_REG      = UART_GET_RX_CTRL_DATA_WIDTH(config->dataBits)       |
 136:.\Generated_Source\PSoC4/UART_UART.c ****                                                 UART_GET_RX_CTRL_MEDIAN(config->enableMedianFilter)
 137:.\Generated_Source\PSoC4/UART_UART.c ****                                                 UART_GET_UART_RX_CTRL_ENABLED(config->direction);
ARM GAS  C:\Users\wbz\AppData\Local\Temp\ccSKsVnf.s 			page 4


 138:.\Generated_Source\PSoC4/UART_UART.c **** 
 139:.\Generated_Source\PSoC4/UART_UART.c ****             UART_RX_FIFO_CTRL_REG = UART_GET_RX_FIFO_CTRL_TRIGGER_LEVEL(config->rxTriggerLevel);
 140:.\Generated_Source\PSoC4/UART_UART.c **** 
 141:.\Generated_Source\PSoC4/UART_UART.c ****             /* Configure MP address */
 142:.\Generated_Source\PSoC4/UART_UART.c ****             UART_RX_MATCH_REG     = UART_GET_RX_MATCH_ADDR(config->multiprocAddr) |
 143:.\Generated_Source\PSoC4/UART_UART.c ****                                                 UART_GET_RX_MATCH_MASK(config->multiprocAddrMask);
 144:.\Generated_Source\PSoC4/UART_UART.c **** 
 145:.\Generated_Source\PSoC4/UART_UART.c ****             /* Configure RX direction */
 146:.\Generated_Source\PSoC4/UART_UART.c ****             UART_UART_TX_CTRL_REG = UART_GET_UART_TX_CTRL_MODE(config->stopBits) |
 147:.\Generated_Source\PSoC4/UART_UART.c ****                                                 UART_GET_UART_TX_CTRL_RETRY_NACK(config->enableRetr
 148:.\Generated_Source\PSoC4/UART_UART.c **** 
 149:.\Generated_Source\PSoC4/UART_UART.c ****             if(UART_UART_PARITY_NONE != config->parity)
 150:.\Generated_Source\PSoC4/UART_UART.c ****             {
 151:.\Generated_Source\PSoC4/UART_UART.c ****                UART_UART_TX_CTRL_REG |= UART_GET_UART_TX_CTRL_PARITY(config->parity) |
 152:.\Generated_Source\PSoC4/UART_UART.c ****                                                     UART_UART_TX_CTRL_PARITY_ENABLED;
 153:.\Generated_Source\PSoC4/UART_UART.c ****             }
 154:.\Generated_Source\PSoC4/UART_UART.c **** 
 155:.\Generated_Source\PSoC4/UART_UART.c ****             UART_TX_CTRL_REG      = UART_GET_TX_CTRL_DATA_WIDTH(config->dataBits)    |
 156:.\Generated_Source\PSoC4/UART_UART.c ****                                                 UART_GET_UART_TX_CTRL_ENABLED(config->direction);
 157:.\Generated_Source\PSoC4/UART_UART.c **** 
 158:.\Generated_Source\PSoC4/UART_UART.c ****             UART_TX_FIFO_CTRL_REG = UART_GET_TX_FIFO_CTRL_TRIGGER_LEVEL(config->txTriggerLevel);
 159:.\Generated_Source\PSoC4/UART_UART.c **** 
 160:.\Generated_Source\PSoC4/UART_UART.c **** 
 161:.\Generated_Source\PSoC4/UART_UART.c ****             /* Configure WAKE interrupt */
 162:.\Generated_Source\PSoC4/UART_UART.c ****             #if(UART_UART_RX_WAKEUP_IRQ)
 163:.\Generated_Source\PSoC4/UART_UART.c ****                 UART_RX_WAKEUP_IRQ_StartEx(&UART_UART_WAKEUP_ISR);
 164:.\Generated_Source\PSoC4/UART_UART.c ****                 UART_RX_WAKEUP_IRQ_Disable();
 165:.\Generated_Source\PSoC4/UART_UART.c ****             #endif /* (UART_UART_RX_WAKEUP_IRQ) */
 166:.\Generated_Source\PSoC4/UART_UART.c **** 
 167:.\Generated_Source\PSoC4/UART_UART.c ****             /* Configure interrupt with UART handler */
 168:.\Generated_Source\PSoC4/UART_UART.c ****             UART_SCB_IRQ_Disable();
 169:.\Generated_Source\PSoC4/UART_UART.c ****             UART_SCB_IRQ_SetVector(&UART_SPI_UART_ISR);
 170:.\Generated_Source\PSoC4/UART_UART.c ****             UART_SCB_IRQ_SetPriority((uint8)UART_SCB_IRQ_INTC_PRIOR_NUMBER);
 171:.\Generated_Source\PSoC4/UART_UART.c **** 
 172:.\Generated_Source\PSoC4/UART_UART.c ****             /* Configure interrupt sources */
 173:.\Generated_Source\PSoC4/UART_UART.c ****             UART_INTR_I2C_EC_MASK_REG = UART_NO_INTR_SOURCES;
 174:.\Generated_Source\PSoC4/UART_UART.c ****             UART_INTR_SPI_EC_MASK_REG = UART_NO_INTR_SOURCES;
 175:.\Generated_Source\PSoC4/UART_UART.c ****             UART_INTR_SLAVE_MASK_REG  = UART_NO_INTR_SOURCES;
 176:.\Generated_Source\PSoC4/UART_UART.c ****             UART_INTR_MASTER_MASK_REG = UART_NO_INTR_SOURCES;
 177:.\Generated_Source\PSoC4/UART_UART.c ****             UART_INTR_RX_MASK_REG     = config->rxInterruptMask;
 178:.\Generated_Source\PSoC4/UART_UART.c ****             UART_INTR_TX_MASK_REG     = config->txInterruptMask;
 179:.\Generated_Source\PSoC4/UART_UART.c **** 
 180:.\Generated_Source\PSoC4/UART_UART.c ****             /* Clear RX buffer indexes */
 181:.\Generated_Source\PSoC4/UART_UART.c ****             UART_rxBufferHead     = 0u;
 182:.\Generated_Source\PSoC4/UART_UART.c ****             UART_rxBufferTail     = 0u;
 183:.\Generated_Source\PSoC4/UART_UART.c ****             UART_rxBufferOverflow = 0u;
 184:.\Generated_Source\PSoC4/UART_UART.c **** 
 185:.\Generated_Source\PSoC4/UART_UART.c ****             /* Clrea TX buffer indexes */
 186:.\Generated_Source\PSoC4/UART_UART.c ****             UART_txBufferHead = 0u;
 187:.\Generated_Source\PSoC4/UART_UART.c ****             UART_txBufferTail = 0u;
 188:.\Generated_Source\PSoC4/UART_UART.c ****         }
 189:.\Generated_Source\PSoC4/UART_UART.c ****     }
 190:.\Generated_Source\PSoC4/UART_UART.c **** 
 191:.\Generated_Source\PSoC4/UART_UART.c **** #else
 192:.\Generated_Source\PSoC4/UART_UART.c **** 
 193:.\Generated_Source\PSoC4/UART_UART.c ****     /*******************************************************************************
 194:.\Generated_Source\PSoC4/UART_UART.c ****     * Function Name: UART_UartInit
ARM GAS  C:\Users\wbz\AppData\Local\Temp\ccSKsVnf.s 			page 5


 195:.\Generated_Source\PSoC4/UART_UART.c ****     ********************************************************************************
 196:.\Generated_Source\PSoC4/UART_UART.c ****     *
 197:.\Generated_Source\PSoC4/UART_UART.c ****     * Summary:
 198:.\Generated_Source\PSoC4/UART_UART.c ****     *  Configures the SCB for SPI operation.
 199:.\Generated_Source\PSoC4/UART_UART.c ****     *
 200:.\Generated_Source\PSoC4/UART_UART.c ****     * Parameters:
 201:.\Generated_Source\PSoC4/UART_UART.c ****     *  None
 202:.\Generated_Source\PSoC4/UART_UART.c ****     *
 203:.\Generated_Source\PSoC4/UART_UART.c ****     * Return:
 204:.\Generated_Source\PSoC4/UART_UART.c ****     *  None
 205:.\Generated_Source\PSoC4/UART_UART.c ****     *
 206:.\Generated_Source\PSoC4/UART_UART.c ****     *******************************************************************************/
 207:.\Generated_Source\PSoC4/UART_UART.c ****     void UART_UartInit(void)
 208:.\Generated_Source\PSoC4/UART_UART.c ****     {
  31              		.loc 1 208 0
  32              		.cfi_startproc
  33 0000 80B5     		push	{r7, lr}
  34              	.LCFI0:
  35              		.cfi_def_cfa_offset 8
  36              		.cfi_offset 7, -8
  37              		.cfi_offset 14, -4
  38 0002 00AF     		add	r7, sp, #0
  39              	.LCFI1:
  40              		.cfi_def_cfa_register 7
 209:.\Generated_Source\PSoC4/UART_UART.c ****         /* Configure UART interface */
 210:.\Generated_Source\PSoC4/UART_UART.c ****         UART_CTRL_REG = UART_UART_DEFAULT_CTRL;
  41              		.loc 1 210 0
  42 0004 174B     		ldr	r3, .L3
  43 0006 184A     		ldr	r2, .L3+4
  44 0008 1A60     		str	r2, [r3]
 211:.\Generated_Source\PSoC4/UART_UART.c **** 
 212:.\Generated_Source\PSoC4/UART_UART.c ****         /* Confiuure submode: UART, SmartCard or IrDA */
 213:.\Generated_Source\PSoC4/UART_UART.c ****         UART_UART_CTRL_REG = UART_UART_DEFAULT_UART_CTRL;
  45              		.loc 1 213 0
  46 000a 184B     		ldr	r3, .L3+8
  47 000c 0022     		mov	r2, #0
  48 000e 1A60     		str	r2, [r3]
 214:.\Generated_Source\PSoC4/UART_UART.c **** 
 215:.\Generated_Source\PSoC4/UART_UART.c ****         /* Configure RX direction */
 216:.\Generated_Source\PSoC4/UART_UART.c ****         UART_UART_RX_CTRL_REG = UART_UART_DEFAULT_UART_RX_CTRL;
  49              		.loc 1 216 0
  50 0010 174B     		ldr	r3, .L3+12
  51 0012 0122     		mov	r2, #1
  52 0014 1A60     		str	r2, [r3]
 217:.\Generated_Source\PSoC4/UART_UART.c ****         UART_RX_CTRL_REG      = UART_UART_DEFAULT_RX_CTRL;
  53              		.loc 1 217 0
  54 0016 174B     		ldr	r3, .L3+16
  55 0018 174A     		ldr	r2, .L3+20
  56 001a 1A60     		str	r2, [r3]
 218:.\Generated_Source\PSoC4/UART_UART.c ****         UART_RX_FIFO_CTRL_REG = UART_UART_DEFAULT_RX_FIFO_CTRL;
  57              		.loc 1 218 0
  58 001c 174B     		ldr	r3, .L3+24
  59 001e 0722     		mov	r2, #7
  60 0020 1A60     		str	r2, [r3]
 219:.\Generated_Source\PSoC4/UART_UART.c ****         UART_RX_MATCH_REG     = UART_UART_DEFAULT_RX_MATCH_REG;
  61              		.loc 1 219 0
  62 0022 174B     		ldr	r3, .L3+28
ARM GAS  C:\Users\wbz\AppData\Local\Temp\ccSKsVnf.s 			page 6


  63 0024 0022     		mov	r2, #0
  64 0026 1A60     		str	r2, [r3]
 220:.\Generated_Source\PSoC4/UART_UART.c **** 
 221:.\Generated_Source\PSoC4/UART_UART.c ****         /* Configure TX direction */
 222:.\Generated_Source\PSoC4/UART_UART.c ****         UART_UART_TX_CTRL_REG = UART_UART_DEFAULT_UART_TX_CTRL;
  65              		.loc 1 222 0
  66 0028 164B     		ldr	r3, .L3+32
  67 002a 0122     		mov	r2, #1
  68 002c 1A60     		str	r2, [r3]
 223:.\Generated_Source\PSoC4/UART_UART.c ****         UART_TX_CTRL_REG      = UART_UART_DEFAULT_TX_CTRL;
  69              		.loc 1 223 0
  70 002e 164B     		ldr	r3, .L3+36
  71 0030 114A     		ldr	r2, .L3+20
  72 0032 1A60     		str	r2, [r3]
 224:.\Generated_Source\PSoC4/UART_UART.c ****         UART_TX_FIFO_CTRL_REG = UART_UART_DEFAULT_TX_FIFO_CTRL;
  73              		.loc 1 224 0
  74 0034 154B     		ldr	r3, .L3+40
  75 0036 0022     		mov	r2, #0
  76 0038 1A60     		str	r2, [r3]
 225:.\Generated_Source\PSoC4/UART_UART.c **** 
 226:.\Generated_Source\PSoC4/UART_UART.c ****         /* Configure interrupt with UART handler */
 227:.\Generated_Source\PSoC4/UART_UART.c ****         #if(UART_SCB_IRQ_INTERNAL)
 228:.\Generated_Source\PSoC4/UART_UART.c ****             UART_SCB_IRQ_Disable();
 229:.\Generated_Source\PSoC4/UART_UART.c ****             UART_SCB_IRQ_SetVector(&UART_SPI_UART_ISR);
 230:.\Generated_Source\PSoC4/UART_UART.c ****             UART_SCB_IRQ_SetPriority((uint8)UART_SCB_IRQ_INTC_PRIOR_NUMBER);
 231:.\Generated_Source\PSoC4/UART_UART.c ****         #endif /* (UART_SCB_IRQ_INTERNAL) */
 232:.\Generated_Source\PSoC4/UART_UART.c **** 
 233:.\Generated_Source\PSoC4/UART_UART.c ****         /* Configure WAKE interrupt */
 234:.\Generated_Source\PSoC4/UART_UART.c ****         #if(UART_UART_RX_WAKEUP_IRQ)
 235:.\Generated_Source\PSoC4/UART_UART.c ****             UART_RX_WAKEUP_IRQ_StartEx(&UART_UART_WAKEUP_ISR);
 236:.\Generated_Source\PSoC4/UART_UART.c ****             UART_RX_WAKEUP_IRQ_Disable();
 237:.\Generated_Source\PSoC4/UART_UART.c ****         #endif /* (UART_UART_RX_WAKEUP_IRQ) */
 238:.\Generated_Source\PSoC4/UART_UART.c ****         
 239:.\Generated_Source\PSoC4/UART_UART.c ****         /* Configure interrupt sources */
 240:.\Generated_Source\PSoC4/UART_UART.c ****         UART_INTR_I2C_EC_MASK_REG = UART_UART_DEFAULT_INTR_I2C_EC_MASK;
  77              		.loc 1 240 0
  78 003a 154B     		ldr	r3, .L3+44
  79 003c 0022     		mov	r2, #0
  80 003e 1A60     		str	r2, [r3]
 241:.\Generated_Source\PSoC4/UART_UART.c ****         UART_INTR_SPI_EC_MASK_REG = UART_UART_DEFAULT_INTR_SPI_EC_MASK;
  81              		.loc 1 241 0
  82 0040 144B     		ldr	r3, .L3+48
  83 0042 0022     		mov	r2, #0
  84 0044 1A60     		str	r2, [r3]
 242:.\Generated_Source\PSoC4/UART_UART.c ****         UART_INTR_SLAVE_MASK_REG  = UART_UART_DEFAULT_INTR_SLAVE_MASK;
  85              		.loc 1 242 0
  86 0046 144B     		ldr	r3, .L3+52
  87 0048 0022     		mov	r2, #0
  88 004a 1A60     		str	r2, [r3]
 243:.\Generated_Source\PSoC4/UART_UART.c ****         UART_INTR_MASTER_MASK_REG = UART_UART_DEFAULT_INTR_MASTER_MASK;
  89              		.loc 1 243 0
  90 004c 134B     		ldr	r3, .L3+56
  91 004e 0022     		mov	r2, #0
  92 0050 1A60     		str	r2, [r3]
 244:.\Generated_Source\PSoC4/UART_UART.c ****         UART_INTR_RX_MASK_REG     = UART_UART_DEFAULT_INTR_RX_MASK;
  93              		.loc 1 244 0
  94 0052 134B     		ldr	r3, .L3+60
ARM GAS  C:\Users\wbz\AppData\Local\Temp\ccSKsVnf.s 			page 7


  95 0054 0022     		mov	r2, #0
  96 0056 1A60     		str	r2, [r3]
 245:.\Generated_Source\PSoC4/UART_UART.c ****         UART_INTR_TX_MASK_REG     = UART_UART_DEFAULT_INTR_TX_MASK;
  97              		.loc 1 245 0
  98 0058 124B     		ldr	r3, .L3+64
  99 005a 0022     		mov	r2, #0
 100 005c 1A60     		str	r2, [r3]
 246:.\Generated_Source\PSoC4/UART_UART.c **** 
 247:.\Generated_Source\PSoC4/UART_UART.c ****         #if(UART_INTERNAL_RX_SW_BUFFER_CONST)
 248:.\Generated_Source\PSoC4/UART_UART.c ****             UART_rxBufferHead     = 0u;
 249:.\Generated_Source\PSoC4/UART_UART.c ****             UART_rxBufferTail     = 0u;
 250:.\Generated_Source\PSoC4/UART_UART.c ****             UART_rxBufferOverflow = 0u;
 251:.\Generated_Source\PSoC4/UART_UART.c ****         #endif /* (UART_INTERNAL_RX_SW_BUFFER_CONST) */
 252:.\Generated_Source\PSoC4/UART_UART.c **** 
 253:.\Generated_Source\PSoC4/UART_UART.c ****         #if(UART_INTERNAL_TX_SW_BUFFER_CONST)
 254:.\Generated_Source\PSoC4/UART_UART.c ****             UART_txBufferHead = 0u;
 255:.\Generated_Source\PSoC4/UART_UART.c ****             UART_txBufferTail = 0u;
 256:.\Generated_Source\PSoC4/UART_UART.c ****         #endif /* (UART_INTERNAL_TX_SW_BUFFER_CONST) */
 257:.\Generated_Source\PSoC4/UART_UART.c ****     }
 101              		.loc 1 257 0
 102 005e BD46     		mov	sp, r7
 103              		@ sp needed for prologue
 104 0060 80BD     		pop	{r7, pc}
 105              	.L4:
 106 0062 C046     		.align	2
 107              	.L3:
 108 0064 00000640 		.word	1074135040
 109 0068 0B000002 		.word	33554443
 110 006c 40000640 		.word	1074135104
 111 0070 48000640 		.word	1074135112
 112 0074 00030640 		.word	1074135808
 113 0078 07000080 		.word	-2147483641
 114 007c 04030640 		.word	1074135812
 115 0080 10030640 		.word	1074135824
 116 0084 44000640 		.word	1074135108
 117 0088 00020640 		.word	1074135552
 118 008c 04020640 		.word	1074135556
 119 0090 880E0640 		.word	1074138760
 120 0094 C80E0640 		.word	1074138824
 121 0098 480F0640 		.word	1074138952
 122 009c 080F0640 		.word	1074138888
 123 00a0 C80F0640 		.word	1074139080
 124 00a4 880F0640 		.word	1074139016
 125              		.cfi_endproc
 126              	.LFE0:
 127              		.size	UART_UartInit, .-UART_UartInit
 128              		.section	.text.UART_UartSetRxAddress,"ax",%progbits
 129              		.align	2
 130              		.global	UART_UartSetRxAddress
 131              		.code	16
 132              		.thumb_func
 133              		.type	UART_UartSetRxAddress, %function
 134              	UART_UartSetRxAddress:
 135              	.LFB1:
 258:.\Generated_Source\PSoC4/UART_UART.c **** 
 259:.\Generated_Source\PSoC4/UART_UART.c **** #endif /* (UART_SCB_MODE_UNCONFIG_CONST_CFG) */
 260:.\Generated_Source\PSoC4/UART_UART.c **** 
ARM GAS  C:\Users\wbz\AppData\Local\Temp\ccSKsVnf.s 			page 8


 261:.\Generated_Source\PSoC4/UART_UART.c **** 
 262:.\Generated_Source\PSoC4/UART_UART.c **** /*******************************************************************************
 263:.\Generated_Source\PSoC4/UART_UART.c **** * Function Name: UART_UartSetRxAddress
 264:.\Generated_Source\PSoC4/UART_UART.c **** ********************************************************************************
 265:.\Generated_Source\PSoC4/UART_UART.c **** *
 266:.\Generated_Source\PSoC4/UART_UART.c **** * Summary:
 267:.\Generated_Source\PSoC4/UART_UART.c **** *  Sets the hardware detectable receiver address for the UART in Multiprocessor
 268:.\Generated_Source\PSoC4/UART_UART.c **** *  mode.
 269:.\Generated_Source\PSoC4/UART_UART.c **** *
 270:.\Generated_Source\PSoC4/UART_UART.c **** * Parameters:
 271:.\Generated_Source\PSoC4/UART_UART.c **** *  address: Address for hardware address detection.
 272:.\Generated_Source\PSoC4/UART_UART.c **** *
 273:.\Generated_Source\PSoC4/UART_UART.c **** * Return:
 274:.\Generated_Source\PSoC4/UART_UART.c **** *  None
 275:.\Generated_Source\PSoC4/UART_UART.c **** *
 276:.\Generated_Source\PSoC4/UART_UART.c **** *******************************************************************************/
 277:.\Generated_Source\PSoC4/UART_UART.c **** void UART_UartSetRxAddress(uint32 address)
 278:.\Generated_Source\PSoC4/UART_UART.c **** {
 136              		.loc 1 278 0
 137              		.cfi_startproc
 138 0000 80B5     		push	{r7, lr}
 139              	.LCFI2:
 140              		.cfi_def_cfa_offset 8
 141              		.cfi_offset 7, -8
 142              		.cfi_offset 14, -4
 143 0002 84B0     		sub	sp, sp, #16
 144              	.LCFI3:
 145              		.cfi_def_cfa_offset 24
 146 0004 00AF     		add	r7, sp, #0
 147              	.LCFI4:
 148              		.cfi_def_cfa_register 7
 149 0006 7860     		str	r0, [r7, #4]
 279:.\Generated_Source\PSoC4/UART_UART.c ****      uint32 matchReg;
 280:.\Generated_Source\PSoC4/UART_UART.c **** 
 281:.\Generated_Source\PSoC4/UART_UART.c ****     matchReg = UART_RX_MATCH_REG;
 150              		.loc 1 281 0
 151 0008 094B     		ldr	r3, .L7
 152 000a 1B68     		ldr	r3, [r3]
 153 000c FB60     		str	r3, [r7, #12]
 282:.\Generated_Source\PSoC4/UART_UART.c **** 
 283:.\Generated_Source\PSoC4/UART_UART.c ****     matchReg &= ((uint32) ~UART_RX_MATCH_ADDR_MASK); /* Clear address bits */
 154              		.loc 1 283 0
 155 000e FB68     		ldr	r3, [r7, #12]
 156 0010 FF22     		mov	r2, #255
 157 0012 9343     		bic	r3, r3, r2
 158 0014 FB60     		str	r3, [r7, #12]
 284:.\Generated_Source\PSoC4/UART_UART.c ****     matchReg |= ((uint32)  (address & UART_RX_MATCH_ADDR_MASK)); /* Set address  */
 159              		.loc 1 284 0
 160 0016 7A68     		ldr	r2, [r7, #4]
 161 0018 FF23     		mov	r3, #255
 162 001a 1340     		and	r3, r3, r2
 163 001c FA68     		ldr	r2, [r7, #12]
 164 001e 1343     		orr	r3, r3, r2
 165 0020 FB60     		str	r3, [r7, #12]
 285:.\Generated_Source\PSoC4/UART_UART.c **** 
 286:.\Generated_Source\PSoC4/UART_UART.c ****     UART_RX_MATCH_REG = matchReg;
 166              		.loc 1 286 0
ARM GAS  C:\Users\wbz\AppData\Local\Temp\ccSKsVnf.s 			page 9


 167 0022 034B     		ldr	r3, .L7
 168 0024 FA68     		ldr	r2, [r7, #12]
 169 0026 1A60     		str	r2, [r3]
 287:.\Generated_Source\PSoC4/UART_UART.c **** }
 170              		.loc 1 287 0
 171 0028 BD46     		mov	sp, r7
 172 002a 04B0     		add	sp, sp, #16
 173              		@ sp needed for prologue
 174 002c 80BD     		pop	{r7, pc}
 175              	.L8:
 176 002e C046     		.align	2
 177              	.L7:
 178 0030 10030640 		.word	1074135824
 179              		.cfi_endproc
 180              	.LFE1:
 181              		.size	UART_UartSetRxAddress, .-UART_UartSetRxAddress
 182              		.section	.text.UART_UartSetRxAddressMask,"ax",%progbits
 183              		.align	2
 184              		.global	UART_UartSetRxAddressMask
 185              		.code	16
 186              		.thumb_func
 187              		.type	UART_UartSetRxAddressMask, %function
 188              	UART_UartSetRxAddressMask:
 189              	.LFB2:
 288:.\Generated_Source\PSoC4/UART_UART.c **** 
 289:.\Generated_Source\PSoC4/UART_UART.c **** 
 290:.\Generated_Source\PSoC4/UART_UART.c **** /*******************************************************************************
 291:.\Generated_Source\PSoC4/UART_UART.c **** * Function Name: UART_UartSetRxAddressMask
 292:.\Generated_Source\PSoC4/UART_UART.c **** ********************************************************************************
 293:.\Generated_Source\PSoC4/UART_UART.c **** *
 294:.\Generated_Source\PSoC4/UART_UART.c **** * Summary:
 295:.\Generated_Source\PSoC4/UART_UART.c **** *  Sets the hardware address mask for the UART in Multiprocessor mode.
 296:.\Generated_Source\PSoC4/UART_UART.c **** *
 297:.\Generated_Source\PSoC4/UART_UART.c **** * Parameters:
 298:.\Generated_Source\PSoC4/UART_UART.c **** *  addressMask: Address mask.
 299:.\Generated_Source\PSoC4/UART_UART.c **** *   0 - address bit does not care while comparison.
 300:.\Generated_Source\PSoC4/UART_UART.c **** *   1 - address bit is significant while comparison.
 301:.\Generated_Source\PSoC4/UART_UART.c **** *
 302:.\Generated_Source\PSoC4/UART_UART.c **** * Return:
 303:.\Generated_Source\PSoC4/UART_UART.c **** *  None
 304:.\Generated_Source\PSoC4/UART_UART.c **** *
 305:.\Generated_Source\PSoC4/UART_UART.c **** *******************************************************************************/
 306:.\Generated_Source\PSoC4/UART_UART.c **** void UART_UartSetRxAddressMask(uint32 addressMask)
 307:.\Generated_Source\PSoC4/UART_UART.c **** {
 190              		.loc 1 307 0
 191              		.cfi_startproc
 192 0000 80B5     		push	{r7, lr}
 193              	.LCFI5:
 194              		.cfi_def_cfa_offset 8
 195              		.cfi_offset 7, -8
 196              		.cfi_offset 14, -4
 197 0002 84B0     		sub	sp, sp, #16
 198              	.LCFI6:
 199              		.cfi_def_cfa_offset 24
 200 0004 00AF     		add	r7, sp, #0
 201              	.LCFI7:
 202              		.cfi_def_cfa_register 7
ARM GAS  C:\Users\wbz\AppData\Local\Temp\ccSKsVnf.s 			page 10


 203 0006 7860     		str	r0, [r7, #4]
 308:.\Generated_Source\PSoC4/UART_UART.c ****     uint32 matchReg;
 309:.\Generated_Source\PSoC4/UART_UART.c **** 
 310:.\Generated_Source\PSoC4/UART_UART.c ****     matchReg = UART_RX_MATCH_REG;
 204              		.loc 1 310 0
 205 0008 084B     		ldr	r3, .L11
 206 000a 1B68     		ldr	r3, [r3]
 207 000c FB60     		str	r3, [r7, #12]
 311:.\Generated_Source\PSoC4/UART_UART.c **** 
 312:.\Generated_Source\PSoC4/UART_UART.c ****     matchReg &= ((uint32) ~UART_RX_MATCH_MASK_MASK); /* Clear address mask bits */
 208              		.loc 1 312 0
 209 000e FA68     		ldr	r2, [r7, #12]
 210 0010 074B     		ldr	r3, .L11+4
 211 0012 1340     		and	r3, r3, r2
 212 0014 FB60     		str	r3, [r7, #12]
 313:.\Generated_Source\PSoC4/UART_UART.c ****     matchReg |= ((uint32) (addressMask << UART_RX_MATCH_MASK_POS));
 213              		.loc 1 313 0
 214 0016 7B68     		ldr	r3, [r7, #4]
 215 0018 1B04     		lsl	r3, r3, #16
 216 001a FA68     		ldr	r2, [r7, #12]
 217 001c 1343     		orr	r3, r3, r2
 218 001e FB60     		str	r3, [r7, #12]
 314:.\Generated_Source\PSoC4/UART_UART.c **** 
 315:.\Generated_Source\PSoC4/UART_UART.c ****     UART_RX_MATCH_REG = matchReg;
 219              		.loc 1 315 0
 220 0020 024B     		ldr	r3, .L11
 221 0022 FA68     		ldr	r2, [r7, #12]
 222 0024 1A60     		str	r2, [r3]
 316:.\Generated_Source\PSoC4/UART_UART.c **** }
 223              		.loc 1 316 0
 224 0026 BD46     		mov	sp, r7
 225 0028 04B0     		add	sp, sp, #16
 226              		@ sp needed for prologue
 227 002a 80BD     		pop	{r7, pc}
 228              	.L12:
 229              		.align	2
 230              	.L11:
 231 002c 10030640 		.word	1074135824
 232 0030 FFFF00FF 		.word	-16711681
 233              		.cfi_endproc
 234              	.LFE2:
 235              		.size	UART_UartSetRxAddressMask, .-UART_UartSetRxAddressMask
 236              		.section	.text.UART_UartGetChar,"ax",%progbits
 237              		.align	2
 238              		.global	UART_UartGetChar
 239              		.code	16
 240              		.thumb_func
 241              		.type	UART_UartGetChar, %function
 242              	UART_UartGetChar:
 243              	.LFB3:
 317:.\Generated_Source\PSoC4/UART_UART.c **** 
 318:.\Generated_Source\PSoC4/UART_UART.c **** 
 319:.\Generated_Source\PSoC4/UART_UART.c **** #if(UART_UART_RX_DIRECTION)
 320:.\Generated_Source\PSoC4/UART_UART.c ****     /*******************************************************************************
 321:.\Generated_Source\PSoC4/UART_UART.c ****     * Function Name: UART_UartGetChar
 322:.\Generated_Source\PSoC4/UART_UART.c ****     ********************************************************************************
 323:.\Generated_Source\PSoC4/UART_UART.c ****     *
ARM GAS  C:\Users\wbz\AppData\Local\Temp\ccSKsVnf.s 			page 11


 324:.\Generated_Source\PSoC4/UART_UART.c ****     * Summary:
 325:.\Generated_Source\PSoC4/UART_UART.c ****     *  Retrieves next data element from receive buffer.
 326:.\Generated_Source\PSoC4/UART_UART.c ****     *  This function is designed for ASCII characters and returns a char
 327:.\Generated_Source\PSoC4/UART_UART.c ****     *  where 1 to 255 is valid characters and 0 indicates an error occurred or
 328:.\Generated_Source\PSoC4/UART_UART.c ****     *  no data is present.
 329:.\Generated_Source\PSoC4/UART_UART.c ****     *  RX software buffer disabled: returns data element retrieved from RX FIFO.
 330:.\Generated_Source\PSoC4/UART_UART.c ****     *  Undefined data will be returned if the RX FIFO is empty.
 331:.\Generated_Source\PSoC4/UART_UART.c ****     *  RX software buffer enabled: Returns data element from the software receive
 332:.\Generated_Source\PSoC4/UART_UART.c ****     *  buffer.
 333:.\Generated_Source\PSoC4/UART_UART.c ****     *
 334:.\Generated_Source\PSoC4/UART_UART.c ****     * Parameters:
 335:.\Generated_Source\PSoC4/UART_UART.c ****     *  None
 336:.\Generated_Source\PSoC4/UART_UART.c ****     *
 337:.\Generated_Source\PSoC4/UART_UART.c ****     * Return:
 338:.\Generated_Source\PSoC4/UART_UART.c ****     *  Next data element from the receive buffer.
 339:.\Generated_Source\PSoC4/UART_UART.c ****     *  ASCII character values from 1 to 255 are valid.
 340:.\Generated_Source\PSoC4/UART_UART.c ****     *  A returned zero signifies an error condition or no data available.
 341:.\Generated_Source\PSoC4/UART_UART.c ****     *
 342:.\Generated_Source\PSoC4/UART_UART.c ****     *******************************************************************************/
 343:.\Generated_Source\PSoC4/UART_UART.c ****     uint32 UART_UartGetChar(void)
 344:.\Generated_Source\PSoC4/UART_UART.c ****     {
 244              		.loc 1 344 0
 245              		.cfi_startproc
 246 0000 80B5     		push	{r7, lr}
 247              	.LCFI8:
 248              		.cfi_def_cfa_offset 8
 249              		.cfi_offset 7, -8
 250              		.cfi_offset 14, -4
 251 0002 82B0     		sub	sp, sp, #8
 252              	.LCFI9:
 253              		.cfi_def_cfa_offset 16
 254 0004 00AF     		add	r7, sp, #0
 255              	.LCFI10:
 256              		.cfi_def_cfa_register 7
 345:.\Generated_Source\PSoC4/UART_UART.c ****         uint32 rxData = 0u;
 257              		.loc 1 345 0
 258 0006 0023     		mov	r3, #0
 259 0008 7B60     		str	r3, [r7, #4]
 346:.\Generated_Source\PSoC4/UART_UART.c **** 
 347:.\Generated_Source\PSoC4/UART_UART.c ****         /* Read data only if there is data to read */
 348:.\Generated_Source\PSoC4/UART_UART.c ****         if(0u != UART_SpiUartGetRxBufferSize())
 260              		.loc 1 348 0
 261 000a FFF7FEFF 		bl	UART_SpiUartGetRxBufferSize
 262 000e 031C     		mov	r3, r0
 263 0010 002B     		cmp	r3, #0
 264 0012 03D0     		beq	.L14
 349:.\Generated_Source\PSoC4/UART_UART.c ****         {
 350:.\Generated_Source\PSoC4/UART_UART.c ****             rxData = UART_SpiUartReadRxData();
 265              		.loc 1 350 0
 266 0014 FFF7FEFF 		bl	UART_SpiUartReadRxData
 267 0018 031C     		mov	r3, r0
 268 001a 7B60     		str	r3, [r7, #4]
 269              	.L14:
 351:.\Generated_Source\PSoC4/UART_UART.c ****         }
 352:.\Generated_Source\PSoC4/UART_UART.c **** 
 353:.\Generated_Source\PSoC4/UART_UART.c ****         if(UART_CHECK_INTR_RX(UART_INTR_RX_ERR))
 270              		.loc 1 353 0
ARM GAS  C:\Users\wbz\AppData\Local\Temp\ccSKsVnf.s 			page 12


 271 001c 084B     		ldr	r3, .L17
 272 001e 1A68     		ldr	r2, [r3]
 273 0020 D823     		mov	r3, #216
 274 0022 9B00     		lsl	r3, r3, #2
 275 0024 1340     		and	r3, r3, r2
 276 0026 002B     		cmp	r3, #0
 277 0028 05D0     		beq	.L15
 354:.\Generated_Source\PSoC4/UART_UART.c ****         {
 355:.\Generated_Source\PSoC4/UART_UART.c ****             rxData = 0u; /* Error occured: return zero */
 278              		.loc 1 355 0
 279 002a 0023     		mov	r3, #0
 280 002c 7B60     		str	r3, [r7, #4]
 356:.\Generated_Source\PSoC4/UART_UART.c ****             UART_ClearRxInterruptSource(UART_INTR_RX_ERR);
 281              		.loc 1 356 0
 282 002e 044A     		ldr	r2, .L17
 283 0030 D823     		mov	r3, #216
 284 0032 9B00     		lsl	r3, r3, #2
 285 0034 1360     		str	r3, [r2]
 286              	.L15:
 357:.\Generated_Source\PSoC4/UART_UART.c ****         }
 358:.\Generated_Source\PSoC4/UART_UART.c **** 
 359:.\Generated_Source\PSoC4/UART_UART.c ****         return(rxData);
 287              		.loc 1 359 0
 288 0036 7B68     		ldr	r3, [r7, #4]
 360:.\Generated_Source\PSoC4/UART_UART.c ****     }
 289              		.loc 1 360 0
 290 0038 181C     		mov	r0, r3
 291 003a BD46     		mov	sp, r7
 292 003c 02B0     		add	sp, sp, #8
 293              		@ sp needed for prologue
 294 003e 80BD     		pop	{r7, pc}
 295              	.L18:
 296              		.align	2
 297              	.L17:
 298 0040 C00F0640 		.word	1074139072
 299              		.cfi_endproc
 300              	.LFE3:
 301              		.size	UART_UartGetChar, .-UART_UartGetChar
 302              		.section	.text.UART_UartGetByte,"ax",%progbits
 303              		.align	2
 304              		.global	UART_UartGetByte
 305              		.code	16
 306              		.thumb_func
 307              		.type	UART_UartGetByte, %function
 308              	UART_UartGetByte:
 309              	.LFB4:
 361:.\Generated_Source\PSoC4/UART_UART.c **** 
 362:.\Generated_Source\PSoC4/UART_UART.c **** 
 363:.\Generated_Source\PSoC4/UART_UART.c ****     /*******************************************************************************
 364:.\Generated_Source\PSoC4/UART_UART.c ****     * Function Name: UART_UartGetByte
 365:.\Generated_Source\PSoC4/UART_UART.c ****     ********************************************************************************
 366:.\Generated_Source\PSoC4/UART_UART.c ****     *
 367:.\Generated_Source\PSoC4/UART_UART.c ****     * Summary:
 368:.\Generated_Source\PSoC4/UART_UART.c ****     *  Retrieves next data element from the receive buffer, returns received byte
 369:.\Generated_Source\PSoC4/UART_UART.c ****     *  and error condition.
 370:.\Generated_Source\PSoC4/UART_UART.c ****     *  RX software buffer disabled: Returns data element retrieved from RX FIFO.
 371:.\Generated_Source\PSoC4/UART_UART.c ****     *  Undefined data will be returned if the RX FIFO is empty.
ARM GAS  C:\Users\wbz\AppData\Local\Temp\ccSKsVnf.s 			page 13


 372:.\Generated_Source\PSoC4/UART_UART.c ****     *  RX software buffer enabled: Returns data element from the software receive
 373:.\Generated_Source\PSoC4/UART_UART.c ****     *  buffer.
 374:.\Generated_Source\PSoC4/UART_UART.c ****     *
 375:.\Generated_Source\PSoC4/UART_UART.c ****     * Parameters:
 376:.\Generated_Source\PSoC4/UART_UART.c ****     *  None
 377:.\Generated_Source\PSoC4/UART_UART.c ****     *
 378:.\Generated_Source\PSoC4/UART_UART.c ****     * Return:
 379:.\Generated_Source\PSoC4/UART_UART.c ****     *  Bits 15-8 contains status and bits 7-0 contains the next data element from
 380:.\Generated_Source\PSoC4/UART_UART.c ****     *  receive buffer. If the bits 15-8 are nonzero, an error has occurred.
 381:.\Generated_Source\PSoC4/UART_UART.c ****     *
 382:.\Generated_Source\PSoC4/UART_UART.c ****     *******************************************************************************/
 383:.\Generated_Source\PSoC4/UART_UART.c ****     uint32 UART_UartGetByte(void)
 384:.\Generated_Source\PSoC4/UART_UART.c ****     {
 310              		.loc 1 384 0
 311              		.cfi_startproc
 312 0000 80B5     		push	{r7, lr}
 313              	.LCFI11:
 314              		.cfi_def_cfa_offset 8
 315              		.cfi_offset 7, -8
 316              		.cfi_offset 14, -4
 317 0002 84B0     		sub	sp, sp, #16
 318              	.LCFI12:
 319              		.cfi_def_cfa_offset 24
 320 0004 00AF     		add	r7, sp, #0
 321              	.LCFI13:
 322              		.cfi_def_cfa_register 7
 385:.\Generated_Source\PSoC4/UART_UART.c ****         uint32 rxData;
 386:.\Generated_Source\PSoC4/UART_UART.c ****         uint32 tmpStatus;
 387:.\Generated_Source\PSoC4/UART_UART.c ****         uint32 intSourceMask;
 388:.\Generated_Source\PSoC4/UART_UART.c **** 
 389:.\Generated_Source\PSoC4/UART_UART.c ****         intSourceMask = UART_SpiUartDisableIntRx();
 323              		.loc 1 389 0
 324 0006 FFF7FEFF 		bl	UART_SpiUartDisableIntRx
 325 000a 031C     		mov	r3, r0
 326 000c FB60     		str	r3, [r7, #12]
 390:.\Generated_Source\PSoC4/UART_UART.c **** 
 391:.\Generated_Source\PSoC4/UART_UART.c ****         if(0u != UART_SpiUartGetRxBufferSize())
 327              		.loc 1 391 0
 328 000e FFF7FEFF 		bl	UART_SpiUartGetRxBufferSize
 329 0012 031C     		mov	r3, r0
 330 0014 002B     		cmp	r3, #0
 331 0016 07D0     		beq	.L20
 392:.\Generated_Source\PSoC4/UART_UART.c ****         {
 393:.\Generated_Source\PSoC4/UART_UART.c ****              /*
 394:.\Generated_Source\PSoC4/UART_UART.c ****              * Enable interrupt to receive more bytes: at least one byte is in
 395:.\Generated_Source\PSoC4/UART_UART.c ****              * buffer.
 396:.\Generated_Source\PSoC4/UART_UART.c ****              */
 397:.\Generated_Source\PSoC4/UART_UART.c ****             UART_SpiUartEnableIntRx(intSourceMask);
 332              		.loc 1 397 0
 333 0018 104B     		ldr	r3, .L23
 334 001a FA68     		ldr	r2, [r7, #12]
 335 001c 1A60     		str	r2, [r3]
 398:.\Generated_Source\PSoC4/UART_UART.c **** 
 399:.\Generated_Source\PSoC4/UART_UART.c ****             /* Get received byte */
 400:.\Generated_Source\PSoC4/UART_UART.c ****             rxData = UART_SpiUartReadRxData();
 336              		.loc 1 400 0
 337 001e FFF7FEFF 		bl	UART_SpiUartReadRxData
ARM GAS  C:\Users\wbz\AppData\Local\Temp\ccSKsVnf.s 			page 14


 338 0022 031C     		mov	r3, r0
 339 0024 7B60     		str	r3, [r7, #4]
 340 0026 05E0     		b	.L21
 341              	.L20:
 401:.\Generated_Source\PSoC4/UART_UART.c ****         }
 402:.\Generated_Source\PSoC4/UART_UART.c ****         else
 403:.\Generated_Source\PSoC4/UART_UART.c ****         {
 404:.\Generated_Source\PSoC4/UART_UART.c ****             /*
 405:.\Generated_Source\PSoC4/UART_UART.c ****             * Read byte directly from RX FIFO: the underflow is raised in case
 406:.\Generated_Source\PSoC4/UART_UART.c ****             * of empty. In other case the first received byte will be read.
 407:.\Generated_Source\PSoC4/UART_UART.c ****             */
 408:.\Generated_Source\PSoC4/UART_UART.c ****             rxData = UART_RX_FIFO_RD_REG;
 342              		.loc 1 408 0
 343 0028 0D4B     		ldr	r3, .L23+4
 344 002a 1B68     		ldr	r3, [r3]
 345 002c 7B60     		str	r3, [r7, #4]
 409:.\Generated_Source\PSoC4/UART_UART.c **** 
 410:.\Generated_Source\PSoC4/UART_UART.c ****             /*
 411:.\Generated_Source\PSoC4/UART_UART.c ****             * Enable interrupt to receive more bytes.
 412:.\Generated_Source\PSoC4/UART_UART.c ****             * The RX_NOT_EMPTY interrupt is cleared by interrupt routine in case
 413:.\Generated_Source\PSoC4/UART_UART.c ****             * byte was received and read above.
 414:.\Generated_Source\PSoC4/UART_UART.c ****             */
 415:.\Generated_Source\PSoC4/UART_UART.c ****             UART_SpiUartEnableIntRx(intSourceMask);
 346              		.loc 1 415 0
 347 002e 0B4B     		ldr	r3, .L23
 348 0030 FA68     		ldr	r2, [r7, #12]
 349 0032 1A60     		str	r2, [r3]
 350              	.L21:
 416:.\Generated_Source\PSoC4/UART_UART.c ****         }
 417:.\Generated_Source\PSoC4/UART_UART.c **** 
 418:.\Generated_Source\PSoC4/UART_UART.c ****         /* Get and clear RX error mask */
 419:.\Generated_Source\PSoC4/UART_UART.c ****         tmpStatus = (UART_GetRxInterruptSource() & UART_INTR_RX_ERR);
 351              		.loc 1 419 0
 352 0034 0B4B     		ldr	r3, .L23+8
 353 0036 1A68     		ldr	r2, [r3]
 354 0038 D823     		mov	r3, #216
 355 003a 9B00     		lsl	r3, r3, #2
 356 003c 1340     		and	r3, r3, r2
 357 003e BB60     		str	r3, [r7, #8]
 420:.\Generated_Source\PSoC4/UART_UART.c ****         UART_ClearRxInterruptSource(UART_INTR_RX_ERR);
 358              		.loc 1 420 0
 359 0040 084A     		ldr	r2, .L23+8
 360 0042 D823     		mov	r3, #216
 361 0044 9B00     		lsl	r3, r3, #2
 362 0046 1360     		str	r3, [r2]
 421:.\Generated_Source\PSoC4/UART_UART.c **** 
 422:.\Generated_Source\PSoC4/UART_UART.c ****         /*
 423:.\Generated_Source\PSoC4/UART_UART.c ****         * Put together data and error status:
 424:.\Generated_Source\PSoC4/UART_UART.c ****         * MP mode and accept address: the 9th bit is set to notify mark.
 425:.\Generated_Source\PSoC4/UART_UART.c ****         */
 426:.\Generated_Source\PSoC4/UART_UART.c ****         rxData |= ((uint32) (tmpStatus << 8u));
 363              		.loc 1 426 0
 364 0048 BB68     		ldr	r3, [r7, #8]
 365 004a 1B02     		lsl	r3, r3, #8
 366 004c 7A68     		ldr	r2, [r7, #4]
 367 004e 1343     		orr	r3, r3, r2
 368 0050 7B60     		str	r3, [r7, #4]
ARM GAS  C:\Users\wbz\AppData\Local\Temp\ccSKsVnf.s 			page 15


 427:.\Generated_Source\PSoC4/UART_UART.c **** 
 428:.\Generated_Source\PSoC4/UART_UART.c ****         return(rxData);
 369              		.loc 1 428 0
 370 0052 7B68     		ldr	r3, [r7, #4]
 429:.\Generated_Source\PSoC4/UART_UART.c ****     }
 371              		.loc 1 429 0
 372 0054 181C     		mov	r0, r3
 373 0056 BD46     		mov	sp, r7
 374 0058 04B0     		add	sp, sp, #16
 375              		@ sp needed for prologue
 376 005a 80BD     		pop	{r7, pc}
 377              	.L24:
 378              		.align	2
 379              	.L23:
 380 005c C80F0640 		.word	1074139080
 381 0060 40030640 		.word	1074135872
 382 0064 C00F0640 		.word	1074139072
 383              		.cfi_endproc
 384              	.LFE4:
 385              		.size	UART_UartGetByte, .-UART_UartGetByte
 386              		.section	.text.UART_UartPutString,"ax",%progbits
 387              		.align	2
 388              		.global	UART_UartPutString
 389              		.code	16
 390              		.thumb_func
 391              		.type	UART_UartPutString, %function
 392              	UART_UartPutString:
 393              	.LFB5:
 430:.\Generated_Source\PSoC4/UART_UART.c **** 
 431:.\Generated_Source\PSoC4/UART_UART.c **** #endif /* (UART_UART_RX_DIRECTION) */
 432:.\Generated_Source\PSoC4/UART_UART.c **** 
 433:.\Generated_Source\PSoC4/UART_UART.c **** 
 434:.\Generated_Source\PSoC4/UART_UART.c **** #if(UART_UART_TX_DIRECTION)
 435:.\Generated_Source\PSoC4/UART_UART.c ****     /*******************************************************************************
 436:.\Generated_Source\PSoC4/UART_UART.c ****     * Function Name: UART_UartPutString
 437:.\Generated_Source\PSoC4/UART_UART.c ****     ********************************************************************************
 438:.\Generated_Source\PSoC4/UART_UART.c ****     *
 439:.\Generated_Source\PSoC4/UART_UART.c ****     * Summary:
 440:.\Generated_Source\PSoC4/UART_UART.c ****     *  Places a NULL terminated string in the transmit buffer to be sent at the
 441:.\Generated_Source\PSoC4/UART_UART.c ****     *  next available bus time.
 442:.\Generated_Source\PSoC4/UART_UART.c ****     *  This function is blocking and waits until there is a space available to put
 443:.\Generated_Source\PSoC4/UART_UART.c ****     *  all requested data in transmit buffer.
 444:.\Generated_Source\PSoC4/UART_UART.c ****     *
 445:.\Generated_Source\PSoC4/UART_UART.c ****     * Parameters:
 446:.\Generated_Source\PSoC4/UART_UART.c ****     *  string: pointer to the null terminated string array to be placed in the
 447:.\Generated_Source\PSoC4/UART_UART.c ****     *          transmit buffer.
 448:.\Generated_Source\PSoC4/UART_UART.c ****     *
 449:.\Generated_Source\PSoC4/UART_UART.c ****     * Return:
 450:.\Generated_Source\PSoC4/UART_UART.c ****     *  None
 451:.\Generated_Source\PSoC4/UART_UART.c ****     *
 452:.\Generated_Source\PSoC4/UART_UART.c ****     *******************************************************************************/
 453:.\Generated_Source\PSoC4/UART_UART.c ****     void UART_UartPutString(const char8 string[])
 454:.\Generated_Source\PSoC4/UART_UART.c ****     {
 394              		.loc 1 454 0
 395              		.cfi_startproc
 396 0000 80B5     		push	{r7, lr}
 397              	.LCFI14:
ARM GAS  C:\Users\wbz\AppData\Local\Temp\ccSKsVnf.s 			page 16


 398              		.cfi_def_cfa_offset 8
 399              		.cfi_offset 7, -8
 400              		.cfi_offset 14, -4
 401 0002 84B0     		sub	sp, sp, #16
 402              	.LCFI15:
 403              		.cfi_def_cfa_offset 24
 404 0004 00AF     		add	r7, sp, #0
 405              	.LCFI16:
 406              		.cfi_def_cfa_register 7
 407 0006 7860     		str	r0, [r7, #4]
 455:.\Generated_Source\PSoC4/UART_UART.c ****         uint32 bufIndex;
 456:.\Generated_Source\PSoC4/UART_UART.c **** 
 457:.\Generated_Source\PSoC4/UART_UART.c ****         bufIndex = 0u;
 408              		.loc 1 457 0
 409 0008 0023     		mov	r3, #0
 410 000a FB60     		str	r3, [r7, #12]
 458:.\Generated_Source\PSoC4/UART_UART.c **** 
 459:.\Generated_Source\PSoC4/UART_UART.c ****         /* Blocks the control flow until all data will be sent */
 460:.\Generated_Source\PSoC4/UART_UART.c ****         while(string[bufIndex] != ((char8) 0))
 411              		.loc 1 460 0
 412 000c 09E0     		b	.L26
 413              	.L27:
 461:.\Generated_Source\PSoC4/UART_UART.c ****         {
 462:.\Generated_Source\PSoC4/UART_UART.c ****             UART_UartPutChar((uint32) string[bufIndex]);
 414              		.loc 1 462 0
 415 000e 7A68     		ldr	r2, [r7, #4]
 416 0010 FB68     		ldr	r3, [r7, #12]
 417 0012 D318     		add	r3, r2, r3
 418 0014 1B78     		ldrb	r3, [r3]
 419 0016 181C     		mov	r0, r3
 420 0018 FFF7FEFF 		bl	UART_SpiUartWriteTxData
 463:.\Generated_Source\PSoC4/UART_UART.c ****             bufIndex++;
 421              		.loc 1 463 0
 422 001c FB68     		ldr	r3, [r7, #12]
 423 001e 0133     		add	r3, r3, #1
 424 0020 FB60     		str	r3, [r7, #12]
 425              	.L26:
 426              		.loc 1 460 0
 427 0022 7A68     		ldr	r2, [r7, #4]
 428 0024 FB68     		ldr	r3, [r7, #12]
 429 0026 D318     		add	r3, r2, r3
 430 0028 1B78     		ldrb	r3, [r3]
 431 002a 002B     		cmp	r3, #0
 432 002c EFD1     		bne	.L27
 464:.\Generated_Source\PSoC4/UART_UART.c ****         }
 465:.\Generated_Source\PSoC4/UART_UART.c ****     }
 433              		.loc 1 465 0
 434 002e BD46     		mov	sp, r7
 435 0030 04B0     		add	sp, sp, #16
 436              		@ sp needed for prologue
 437 0032 80BD     		pop	{r7, pc}
 438              		.cfi_endproc
 439              	.LFE5:
 440              		.size	UART_UartPutString, .-UART_UartPutString
 441              		.section	.text.UART_UartPutCRLF,"ax",%progbits
 442              		.align	2
 443              		.global	UART_UartPutCRLF
ARM GAS  C:\Users\wbz\AppData\Local\Temp\ccSKsVnf.s 			page 17


 444              		.code	16
 445              		.thumb_func
 446              		.type	UART_UartPutCRLF, %function
 447              	UART_UartPutCRLF:
 448              	.LFB6:
 466:.\Generated_Source\PSoC4/UART_UART.c **** 
 467:.\Generated_Source\PSoC4/UART_UART.c **** 
 468:.\Generated_Source\PSoC4/UART_UART.c ****     /*******************************************************************************
 469:.\Generated_Source\PSoC4/UART_UART.c ****     * Function Name: UART_UartPutCRLF
 470:.\Generated_Source\PSoC4/UART_UART.c ****     ********************************************************************************
 471:.\Generated_Source\PSoC4/UART_UART.c ****     *
 472:.\Generated_Source\PSoC4/UART_UART.c ****     * Summary:
 473:.\Generated_Source\PSoC4/UART_UART.c ****     *  Places byte of data followed by a carriage return (0x0D) and line feed (0x0A)
 474:.\Generated_Source\PSoC4/UART_UART.c ****     *  to the transmit buffer.
 475:.\Generated_Source\PSoC4/UART_UART.c ****     *  This function is blocking and waits until there is a space available to put
 476:.\Generated_Source\PSoC4/UART_UART.c ****     *  all requested data in transmit buffer.
 477:.\Generated_Source\PSoC4/UART_UART.c ****     *
 478:.\Generated_Source\PSoC4/UART_UART.c ****     * Parameters:
 479:.\Generated_Source\PSoC4/UART_UART.c ****     *  txDataByte : the data to be transmitted.
 480:.\Generated_Source\PSoC4/UART_UART.c ****     *
 481:.\Generated_Source\PSoC4/UART_UART.c ****     * Return:
 482:.\Generated_Source\PSoC4/UART_UART.c ****     *  None
 483:.\Generated_Source\PSoC4/UART_UART.c ****     *
 484:.\Generated_Source\PSoC4/UART_UART.c ****     *******************************************************************************/
 485:.\Generated_Source\PSoC4/UART_UART.c ****     void UART_UartPutCRLF(uint32 txDataByte)
 486:.\Generated_Source\PSoC4/UART_UART.c ****     {
 449              		.loc 1 486 0
 450              		.cfi_startproc
 451 0000 80B5     		push	{r7, lr}
 452              	.LCFI17:
 453              		.cfi_def_cfa_offset 8
 454              		.cfi_offset 7, -8
 455              		.cfi_offset 14, -4
 456 0002 82B0     		sub	sp, sp, #8
 457              	.LCFI18:
 458              		.cfi_def_cfa_offset 16
 459 0004 00AF     		add	r7, sp, #0
 460              	.LCFI19:
 461              		.cfi_def_cfa_register 7
 462 0006 7860     		str	r0, [r7, #4]
 487:.\Generated_Source\PSoC4/UART_UART.c ****         UART_UartPutChar(txDataByte);  /* Blocks the control flow until all data will be sent */
 463              		.loc 1 487 0
 464 0008 7B68     		ldr	r3, [r7, #4]
 465 000a 181C     		mov	r0, r3
 466 000c FFF7FEFF 		bl	UART_SpiUartWriteTxData
 488:.\Generated_Source\PSoC4/UART_UART.c ****         UART_UartPutChar(0x0Du);       /* Blocks the control flow until all data will be sent */
 467              		.loc 1 488 0
 468 0010 0D20     		mov	r0, #13
 469 0012 FFF7FEFF 		bl	UART_SpiUartWriteTxData
 489:.\Generated_Source\PSoC4/UART_UART.c ****         UART_UartPutChar(0x0Au);       /* Blocks the control flow until all data will be sent */
 470              		.loc 1 489 0
 471 0016 0A20     		mov	r0, #10
 472 0018 FFF7FEFF 		bl	UART_SpiUartWriteTxData
 490:.\Generated_Source\PSoC4/UART_UART.c ****     }
 473              		.loc 1 490 0
 474 001c BD46     		mov	sp, r7
 475 001e 02B0     		add	sp, sp, #8
ARM GAS  C:\Users\wbz\AppData\Local\Temp\ccSKsVnf.s 			page 18


 476              		@ sp needed for prologue
 477 0020 80BD     		pop	{r7, pc}
 478              		.cfi_endproc
 479              	.LFE6:
 480              		.size	UART_UartPutCRLF, .-UART_UartPutCRLF
 481 0022 C046     		.text
 482              	.Letext0: